ARM GAS  C:\Users\embedded\AppData\Local\Temp\cctMD7zZ.s 			page 1


   1              		.cpu arm7tdmi
   2              		.eabi_attribute 20, 1
   3              		.eabi_attribute 21, 1
   4              		.eabi_attribute 23, 3
   5              		.eabi_attribute 24, 1
   6              		.eabi_attribute 25, 1
   7              		.eabi_attribute 26, 1
   8              		.eabi_attribute 30, 6
   9              		.eabi_attribute 34, 0
  10              		.eabi_attribute 18, 4
  11              		.file	"adc.c"
  12              		.text
  13              	.Ltext0:
  14              		.cfi_sections	.debug_frame
  15              		.section	.rodata
  16              		.align	2
  17              		.type	one32, %object
  18              		.size	one32, 4
  19              	one32:
  20 0000 01000000 		.word	1
  21              		.text
  22              		.align	1
  23              		.global	getAnalogueInputAdc0
  24              		.syntax unified
  25              		.code	16
  26              		.thumb_func
  27              		.fpu softvfp
  28              		.type	getAnalogueInputAdc0, %function
  29              	getAnalogueInputAdc0:
  30              	.LFB0:
  31              		.file 1 "adc.c"
   1:adc.c         **** /*
   2:adc.c         ****  *	@Descritpion:	Zawariera zbior definicji funkcji zwiazanych
   3:adc.c         ****  *					z wykorzystaniem przetwornikow analogowo-cyfrowych
   4:adc.c         ****  */
   5:adc.c         **** 
   6:adc.c         **** #include "general.h"
   7:adc.c         **** #include <printf_P.h>
   8:adc.c         **** #include <lpc2xxx.h>
   9:adc.c         **** #include <config.h>
  10:adc.c         **** #include "functionals.h"
  11:adc.c         **** #include "adc.h"
  12:adc.c         **** 
  13:adc.c         **** /* Definicje */
  14:adc.c         **** #define CRYSTAL_FREQUENCY	FOSC		/* Czestotliwosc taktowania zewetrznego zegara */
  15:adc.c         **** #define PLL_FACTOR			PLL_MUL	/* Wspolczynnik mnozenia PLL */
  16:adc.c         **** #define VPBDIV_FACTOR		PBSD		/* Wspolczynik dzielenia dla predkosci magistrli urzadzen peryferyjnyc
  17:adc.c         **** 
  18:adc.c         **** /* Jedynka 32-bitowa */
  19:adc.c         **** static const tU32 one32 = 1u;
  20:adc.c         **** 
  21:adc.c         **** 
  22:adc.c         **** /*
  23:adc.c         ****  *  @brief			Funkcja odczytujaca wartosc podanego kanalu przetwornika analogowo-cyfrowego ADC0
  24:adc.c         ****  *
  25:adc.c         ****  *  @Description	Funkcja wykonuje zapis do rejestru kontrolnego przetwornika ADC0 informacji o wybr
  26:adc.c         ****  *					kanale, z ktorego ma byc odczytana wartosc (po przez ustawienie odpowiedniego bitu
ARM GAS  C:\Users\embedded\AppData\Local\Temp\cctMD7zZ.s 			page 2


  27:adc.c         ****  *					- numer bitu rowny numerowi kanalu), oraz ustawia bit informujacy (nr 24), iz przetworzenie
  28:adc.c         ****  *					ma nastapic odrazu.
  29:adc.c         ****  *
  30:adc.c         ****  *  @param 			[in]	channel
  31:adc.c         ****  *						numer kanalu, z ktorego ma zostac odczytana wartosc
  32:adc.c         ****  *
  33:adc.c         ****  *  @returns  		odczytana wartosc z rejestru ADC0 po wykonaniu konwersji dla podanego kanalu
  34:adc.c         ****  *
  35:adc.c         ****  *  @side effects	Modyfikacja rejestru ADCR przetwornika analogowo-cyfrowego ADC0
  36:adc.c         ****  */
  37:adc.c         **** tU16 getAnalogueInputAdc0(AdcChanel channel)
  38:adc.c         **** {
  32              		.loc 1 38 0
  33              		.cfi_startproc
  34              		@ Function supports interworking.
  35              		@ args = 0, pretend = 0, frame = 16
  36              		@ frame_needed = 1, uses_anonymous_args = 0
  37 0000 90B5     		push	{r4, r7, lr}
  38              	.LCFI0:
  39              		.cfi_def_cfa_offset 12
  40              		.cfi_offset 4, -12
  41              		.cfi_offset 7, -8
  42              		.cfi_offset 14, -4
  43 0002 85B0     		sub	sp, sp, #20
  44              	.LCFI1:
  45              		.cfi_def_cfa_offset 32
  46 0004 00AF     		add	r7, sp, #0
  47              	.LCFI2:
  48              		.cfi_def_cfa_register 7
  49 0006 0200     		movs	r2, r0
  50 0008 FB1D     		adds	r3, r7, #7
  51 000a 1A70     		strb	r2, [r3]
  39:adc.c         **** 	/*Ustawienie stanu pinu P0.14 na niski, aby dokladnosc pomiarowa byla +- 1.5 g (800mV/g) */
  40:adc.c         ****     IOCLR = one32 << GS2;
  52              		.loc 1 40 0
  53 000c 0122     		movs	r2, #1
  54 000e 284B     		ldr	r3, .L4
  55 0010 9203     		lsls	r2, r2, #14
  56 0012 1A60     		str	r2, [r3]
  41:adc.c         **** 
  42:adc.c         **** 	/* Zmienna, do ktorej zapisany zostanie wynik odczytu */
  43:adc.c         **** 	tU16 returnResult;
  44:adc.c         **** 	
  45:adc.c         **** 	/* Wybor kanalu, z ktorego maja byc odczytywane dane */
  46:adc.c         **** 	ADCR &= ~(0xFFu);
  57              		.loc 1 46 0
  58 0014 274B     		ldr	r3, .L4+4
  59 0016 1A68     		ldr	r2, [r3]
  60 0018 264B     		ldr	r3, .L4+4
  61 001a FF21     		movs	r1, #255
  62 001c 8A43     		bics	r2, r1
  63 001e 1A60     		str	r2, [r3]
  47:adc.c         **** 	ADCR |= one32 << (tU8)channel;
  64              		.loc 1 47 0
  65 0020 244B     		ldr	r3, .L4+4
  66 0022 1968     		ldr	r1, [r3]
  67 0024 0122     		movs	r2, #1
ARM GAS  C:\Users\embedded\AppData\Local\Temp\cctMD7zZ.s 			page 3


  68 0026 FB1D     		adds	r3, r7, #7
  69 0028 1B78     		ldrb	r3, [r3]
  70 002a 9A40     		lsls	r2, r2, r3
  71 002c 214B     		ldr	r3, .L4+4
  72 002e 0A43     		orrs	r2, r1
  73 0030 1A60     		str	r2, [r3]
  48:adc.c         **** 
  49:adc.c         **** 	/* Ustawienie trybu przetwornika na operacyjny i ustawienie konwersji na teraz */
  50:adc.c         **** 	ADCR |= (one32 << 21) | (one32 << 24);
  74              		.loc 1 50 0
  75 0032 204B     		ldr	r3, .L4+4
  76 0034 1968     		ldr	r1, [r3]
  77 0036 0123     		movs	r3, #1
  78 0038 5A05     		lsls	r2, r3, #21
  79 003a 0123     		movs	r3, #1
  80 003c 1B06     		lsls	r3, r3, #24
  81 003e 1A43     		orrs	r2, r3
  82 0040 1C4B     		ldr	r3, .L4+4
  83 0042 0A43     		orrs	r2, r1
  84 0044 1A60     		str	r2, [r3]
  51:adc.c         **** 	ADCR &= ~((one32 << 26) | (one32 << 25));
  85              		.loc 1 51 0
  86 0046 1B4B     		ldr	r3, .L4+4
  87 0048 1A68     		ldr	r2, [r3]
  88 004a 0123     		movs	r3, #1
  89 004c 9906     		lsls	r1, r3, #26
  90 004e 0123     		movs	r3, #1
  91 0050 5B06     		lsls	r3, r3, #25
  92 0052 0B43     		orrs	r3, r1
  93 0054 D943     		mvns	r1, r3
  94 0056 174B     		ldr	r3, .L4+4
  95 0058 0A40     		ands	r2, r1
  96 005a 1A60     		str	r2, [r3]
  52:adc.c         **** 	
  53:adc.c         **** 	/* Sprawdzanie, czy konwersja sie zakonczyla */
  54:adc.c         **** 	while ((ADDR & 0x80000000U) == 0)
  97              		.loc 1 54 0
  98 005c C046     		nop
  99              	.L2:
 100              		.loc 1 54 0 is_stmt 0 discriminator 1
 101 005e 164B     		ldr	r3, .L4+8
 102 0060 1B68     		ldr	r3, [r3]
 103 0062 002B     		cmp	r3, #0
 104 0064 FBDA     		bge	.L2
  55:adc.c         **** 	{
  56:adc.c         **** 		;
  57:adc.c         **** 	}
  58:adc.c         **** 	  
  59:adc.c         **** 	/* Odczytanie z rejestru wyniku, ktory jest 10 bitowa liczba calkowita */
  60:adc.c         **** 	returnResult = (ADDR >> 6) & 0x3FF;
 105              		.loc 1 60 0 is_stmt 1
 106 0066 144B     		ldr	r3, .L4+8
 107 0068 1B68     		ldr	r3, [r3]
 108 006a 9B09     		lsrs	r3, r3, #6
 109 006c 1B04     		lsls	r3, r3, #16
 110 006e 1A0C     		lsrs	r2, r3, #16
 111 0070 0E24     		movs	r4, #14
ARM GAS  C:\Users\embedded\AppData\Local\Temp\cctMD7zZ.s 			page 4


 112 0072 3B19     		adds	r3, r7, r4
 113 0074 9205     		lsls	r2, r2, #22
 114 0076 920D     		lsrs	r2, r2, #22
 115 0078 1A80     		strh	r2, [r3]
  61:adc.c         **** 
  62:adc.c         **** 	/* Ustawienie trybu przetwornika na power-down i wylaczenie rozpoczecia*/
  63:adc.c         **** 	ADCR &= ~((one32 << 21) | (one32 << 24));
 116              		.loc 1 63 0
 117 007a 0E4B     		ldr	r3, .L4+4
 118 007c 1A68     		ldr	r2, [r3]
 119 007e 0123     		movs	r3, #1
 120 0080 5905     		lsls	r1, r3, #21
 121 0082 0123     		movs	r3, #1
 122 0084 1B06     		lsls	r3, r3, #24
 123 0086 0B43     		orrs	r3, r1
 124 0088 D943     		mvns	r1, r3
 125 008a 0A4B     		ldr	r3, .L4+4
 126 008c 0A40     		ands	r2, r1
 127 008e 1A60     		str	r2, [r3]
  64:adc.c         **** 	
  65:adc.c         **** 	delay_ms(100);
 128              		.loc 1 65 0
 129 0090 6420     		movs	r0, #100
 130 0092 FFF7FEFF 		bl	delay_ms
  66:adc.c         **** 
  67:adc.c         **** 	/* Ustawienie pinu P0.14, zwiazanego z dokladoscia akcelerometru i chip select kontrolera Ethernet
  68:adc.c         ****     IOSET  = one32 << GS2;
 131              		.loc 1 68 0
 132 0096 0122     		movs	r2, #1
 133 0098 084B     		ldr	r3, .L4+12
 134 009a 9203     		lsls	r2, r2, #14
 135 009c 1A60     		str	r2, [r3]
  69:adc.c         **** 
  70:adc.c         **** 	return returnResult;
 136              		.loc 1 70 0
 137 009e 3B19     		adds	r3, r7, r4
 138 00a0 1B88     		ldrh	r3, [r3]
  71:adc.c         **** }
 139              		.loc 1 71 0
 140 00a2 1800     		movs	r0, r3
 141 00a4 BD46     		mov	sp, r7
 142 00a6 05B0     		add	sp, sp, #20
 143              		@ sp needed
 144 00a8 90BC     		pop	{r4, r7}
 145 00aa 02BC     		pop	{r1}
 146 00ac 0847     		bx	r1
 147              	.L5:
 148 00ae C046     		.align	2
 149              	.L4:
 150 00b0 0C8002E0 		.word	-536707060
 151 00b4 004003E0 		.word	-536657920
 152 00b8 044003E0 		.word	-536657916
 153 00bc 048002E0 		.word	-536707068
 154              		.cfi_endproc
 155              	.LFE0:
 156              		.size	getAnalogueInputAdc0, .-getAnalogueInputAdc0
 157              		.align	1
ARM GAS  C:\Users\embedded\AppData\Local\Temp\cctMD7zZ.s 			page 5


 158              		.global	getAnalogueInputAdc1
 159              		.syntax unified
 160              		.code	16
 161              		.thumb_func
 162              		.fpu softvfp
 163              		.type	getAnalogueInputAdc1, %function
 164              	getAnalogueInputAdc1:
 165              	.LFB1:
  72:adc.c         **** 
  73:adc.c         **** /*
  74:adc.c         ****  *  @brief			Funkcja odczytujaca wartosc podanego kanalu przetwornika analogowo-cyfrowego ADC1
  75:adc.c         ****  *
  76:adc.c         ****  *  @Description	Funkcja wykonuje zapis do rejestru kontrolnego przetwornika ADC1 informacji o wybr
  77:adc.c         ****  *					kanale, z ktorego ma byc odczytana wartosc (po przez ustawienie odpowiedniego bitu
  78:adc.c         ****  *					- numer bitu rowny numerowi kanalu), oraz ustawia bit informujacy (nr 24), iz przetworzenie
  79:adc.c         ****  *					ma nastapic odrazu.
  80:adc.c         ****  *
  81:adc.c         ****  *  @param 			[in]	channel
  82:adc.c         ****  *						numer kanalu, z ktorego ma zostac odczytana wartosc
  83:adc.c         ****  *
  84:adc.c         ****  *  @returns  		odczytana wartosc z rejestru ADC1 po wykonaniu konwersji dla podanego kanalu
  85:adc.c         ****  *
  86:adc.c         ****  *  @side effects	Modyfikacja rejestru AD1CR przetwornika analogowo-cyfrowego ADC1
  87:adc.c         ****  */
  88:adc.c         **** tU16 getAnalogueInputAdc1(AdcChanel channel)
  89:adc.c         **** {
 166              		.loc 1 89 0
 167              		.cfi_startproc
 168              		@ Function supports interworking.
 169              		@ args = 0, pretend = 0, frame = 16
 170              		@ frame_needed = 1, uses_anonymous_args = 0
 171 00c0 90B5     		push	{r4, r7, lr}
 172              	.LCFI3:
 173              		.cfi_def_cfa_offset 12
 174              		.cfi_offset 4, -12
 175              		.cfi_offset 7, -8
 176              		.cfi_offset 14, -4
 177 00c2 85B0     		sub	sp, sp, #20
 178              	.LCFI4:
 179              		.cfi_def_cfa_offset 32
 180 00c4 00AF     		add	r7, sp, #0
 181              	.LCFI5:
 182              		.cfi_def_cfa_register 7
 183 00c6 0200     		movs	r2, r0
 184 00c8 FB1D     		adds	r3, r7, #7
 185 00ca 1A70     		strb	r2, [r3]
  90:adc.c         **** 	/*Ustawienie stanu pinu P0.14 na niski, aby dokladnosc pomiarowa byla +- 1.5 g (800mV/g) */
  91:adc.c         ****     IOCLR  = one32 << GS2;
 186              		.loc 1 91 0
 187 00cc 0122     		movs	r2, #1
 188 00ce 284B     		ldr	r3, .L9
 189 00d0 9203     		lsls	r2, r2, #14
 190 00d2 1A60     		str	r2, [r3]
  92:adc.c         **** 	/* Zmienna, do ktorej zapisany zostanie wynik odczytu */
  93:adc.c         **** 	tU16 returnResult;
  94:adc.c         **** 
  95:adc.c         **** 	/* Wybor kanalu, z ktorego maja byc odczytywane dane */
ARM GAS  C:\Users\embedded\AppData\Local\Temp\cctMD7zZ.s 			page 6


  96:adc.c         **** 	AD1CR &= ~(0xFF);
 191              		.loc 1 96 0
 192 00d4 274B     		ldr	r3, .L9+4
 193 00d6 1A68     		ldr	r2, [r3]
 194 00d8 264B     		ldr	r3, .L9+4
 195 00da FF21     		movs	r1, #255
 196 00dc 8A43     		bics	r2, r1
 197 00de 1A60     		str	r2, [r3]
  97:adc.c         **** 	AD1CR |= one32 << (tU8)channel;
 198              		.loc 1 97 0
 199 00e0 244B     		ldr	r3, .L9+4
 200 00e2 1968     		ldr	r1, [r3]
 201 00e4 0122     		movs	r2, #1
 202 00e6 FB1D     		adds	r3, r7, #7
 203 00e8 1B78     		ldrb	r3, [r3]
 204 00ea 9A40     		lsls	r2, r2, r3
 205 00ec 214B     		ldr	r3, .L9+4
 206 00ee 0A43     		orrs	r2, r1
 207 00f0 1A60     		str	r2, [r3]
  98:adc.c         **** 
  99:adc.c         **** 	/* Ustawienie trybu przetwornika na operacyjny i ustawienie konwersji na teraz */
 100:adc.c         **** 	AD1CR |= (one32 << 21) | (one32 << 24);
 208              		.loc 1 100 0
 209 00f2 204B     		ldr	r3, .L9+4
 210 00f4 1968     		ldr	r1, [r3]
 211 00f6 0123     		movs	r3, #1
 212 00f8 5A05     		lsls	r2, r3, #21
 213 00fa 0123     		movs	r3, #1
 214 00fc 1B06     		lsls	r3, r3, #24
 215 00fe 1A43     		orrs	r2, r3
 216 0100 1C4B     		ldr	r3, .L9+4
 217 0102 0A43     		orrs	r2, r1
 218 0104 1A60     		str	r2, [r3]
 101:adc.c         **** 	AD1CR &= ~((one32 << 26) | (one32 << 25));
 219              		.loc 1 101 0
 220 0106 1B4B     		ldr	r3, .L9+4
 221 0108 1A68     		ldr	r2, [r3]
 222 010a 0123     		movs	r3, #1
 223 010c 9906     		lsls	r1, r3, #26
 224 010e 0123     		movs	r3, #1
 225 0110 5B06     		lsls	r3, r3, #25
 226 0112 0B43     		orrs	r3, r1
 227 0114 D943     		mvns	r1, r3
 228 0116 174B     		ldr	r3, .L9+4
 229 0118 0A40     		ands	r2, r1
 230 011a 1A60     		str	r2, [r3]
 102:adc.c         **** 
 103:adc.c         **** 	/* Sprawdzanie, czy konwersja sie zakonczyla */
 104:adc.c         **** 	while ((AD1DR & 0x80000000U) == 0)
 231              		.loc 1 104 0
 232 011c C046     		nop
 233              	.L7:
 234              		.loc 1 104 0 is_stmt 0 discriminator 1
 235 011e 164B     		ldr	r3, .L9+8
 236 0120 1B68     		ldr	r3, [r3]
 237 0122 002B     		cmp	r3, #0
 238 0124 FBDA     		bge	.L7
ARM GAS  C:\Users\embedded\AppData\Local\Temp\cctMD7zZ.s 			page 7


 105:adc.c         **** 	{
 106:adc.c         **** 		;
 107:adc.c         **** 	}
 108:adc.c         **** 
 109:adc.c         **** 	/* Odczytanie z rejestru wyniku, ktory jest 10 bitowa liczba calkowita */
 110:adc.c         **** 	returnResult = (AD1DR >> 6) & 0x3FF;
 239              		.loc 1 110 0 is_stmt 1
 240 0126 144B     		ldr	r3, .L9+8
 241 0128 1B68     		ldr	r3, [r3]
 242 012a 9B09     		lsrs	r3, r3, #6
 243 012c 1B04     		lsls	r3, r3, #16
 244 012e 1A0C     		lsrs	r2, r3, #16
 245 0130 0E24     		movs	r4, #14
 246 0132 3B19     		adds	r3, r7, r4
 247 0134 9205     		lsls	r2, r2, #22
 248 0136 920D     		lsrs	r2, r2, #22
 249 0138 1A80     		strh	r2, [r3]
 111:adc.c         **** 
 112:adc.c         **** 	/* Ustawienie trybu przetwornika na power-down i wylaczenie rozpoczecia*/
 113:adc.c         **** 	AD1CR &= ~((one32 << 21) | (one32 << 24));
 250              		.loc 1 113 0
 251 013a 0E4B     		ldr	r3, .L9+4
 252 013c 1A68     		ldr	r2, [r3]
 253 013e 0123     		movs	r3, #1
 254 0140 5905     		lsls	r1, r3, #21
 255 0142 0123     		movs	r3, #1
 256 0144 1B06     		lsls	r3, r3, #24
 257 0146 0B43     		orrs	r3, r1
 258 0148 D943     		mvns	r1, r3
 259 014a 0A4B     		ldr	r3, .L9+4
 260 014c 0A40     		ands	r2, r1
 261 014e 1A60     		str	r2, [r3]
 114:adc.c         **** 
 115:adc.c         **** 	delay_ms(100);
 262              		.loc 1 115 0
 263 0150 6420     		movs	r0, #100
 264 0152 FFF7FEFF 		bl	delay_ms
 116:adc.c         **** 
 117:adc.c         **** 	/* Ustawienie pinu P0.14, zwiazanego z dokladoscia akcelerometru i chip select kontrolera Ethernet
 118:adc.c         **** 	IOSET = one32 << GS2;
 265              		.loc 1 118 0
 266 0156 0122     		movs	r2, #1
 267 0158 084B     		ldr	r3, .L9+12
 268 015a 9203     		lsls	r2, r2, #14
 269 015c 1A60     		str	r2, [r3]
 119:adc.c         ****   
 120:adc.c         **** 	return returnResult;
 270              		.loc 1 120 0
 271 015e 3B19     		adds	r3, r7, r4
 272 0160 1B88     		ldrh	r3, [r3]
 121:adc.c         **** }
 273              		.loc 1 121 0
 274 0162 1800     		movs	r0, r3
 275 0164 BD46     		mov	sp, r7
 276 0166 05B0     		add	sp, sp, #20
 277              		@ sp needed
 278 0168 90BC     		pop	{r4, r7}
ARM GAS  C:\Users\embedded\AppData\Local\Temp\cctMD7zZ.s 			page 8


 279 016a 02BC     		pop	{r1}
 280 016c 0847     		bx	r1
 281              	.L10:
 282 016e C046     		.align	2
 283              	.L9:
 284 0170 0C8002E0 		.word	-536707060
 285 0174 000006E0 		.word	-536477696
 286 0178 040006E0 		.word	-536477692
 287 017c 048002E0 		.word	-536707068
 288              		.cfi_endproc
 289              	.LFE1:
 290              		.size	getAnalogueInputAdc1, .-getAnalogueInputAdc1
 291              		.align	1
 292              		.global	initAdc
 293              		.syntax unified
 294              		.code	16
 295              		.thumb_func
 296              		.fpu softvfp
 297              		.type	initAdc, %function
 298              	initAdc:
 299              	.LFB2:
 122:adc.c         **** 
 123:adc.c         **** 
 124:adc.c         **** /*
 125:adc.c         ****  *  @brief			Funkcja incijalizujaca przetworniki analogowo-cyfrowe ADC0 i ADC1, aby moc odczytywac
 126:adc.c         ****  *					przyspieszenie z akcelerometru w trzeh osiach
 127:adc.c         ****  *
 128:adc.c         ****  *  @Description	Funckja ustawia odpowiednia wartosci w rejestrze PINSEL1 (bity 10.,13.,29. na 0,
 129:adc.c         ****  *					a bity 11., 12., 28. na 1), aby odpowiednie piny (P0.21, P0.22, P0.30) pelnily
 130:adc.c         ****  * 					funkcje zwiazane z odczytem z akcelerometru wartosci przyspieszenia wzdluz osi X, Y i Z.
 131:adc.c         ****  *
 132:adc.c         ****  *  @param 			brak
 133:adc.c         ****  *
 134:adc.c         ****  *  @returns  		nic
 135:adc.c         ****  *
 136:adc.c         ****  *  @side effects	Modyfikacja rejestru PINSEL1
 137:adc.c         ****  * 					Modyfikacja rejestru ADCR
 138:adc.c         ****  * 					Modyfikacja rejestru AD1CR
 139:adc.c         ****  */
 140:adc.c         **** void initAdc(void)
 141:adc.c         **** {
 300              		.loc 1 141 0
 301              		.cfi_startproc
 302              		@ Function supports interworking.
 303              		@ args = 0, pretend = 0, frame = 8
 304              		@ frame_needed = 1, uses_anonymous_args = 0
 305 0180 80B5     		push	{r7, lr}
 306              	.LCFI6:
 307              		.cfi_def_cfa_offset 8
 308              		.cfi_offset 7, -8
 309              		.cfi_offset 14, -4
 310 0182 82B0     		sub	sp, sp, #8
 311              	.LCFI7:
 312              		.cfi_def_cfa_offset 16
 313 0184 00AF     		add	r7, sp, #0
 314              	.LCFI8:
 315              		.cfi_def_cfa_register 7
ARM GAS  C:\Users\embedded\AppData\Local\Temp\cctMD7zZ.s 			page 9


 142:adc.c         **** 	/* Zero 32-bitowe */
 143:adc.c         **** 	const tU32 zero32 = 0u;
 316              		.loc 1 143 0
 317 0186 0023     		movs	r3, #0
 318 0188 7B60     		str	r3, [r7, #4]
 144:adc.c         **** 
 145:adc.c         **** 	/* Ustawienie dokladnosci pomiarowej na +- 1.5 g (800mV/g) - ustawienie stanu niskiego na pinach P
 146:adc.c         ****     IODIR |= (one32 << GS1) | (one32 << GS2);
 319              		.loc 1 146 0
 320 018a 374B     		ldr	r3, .L12
 321 018c 1968     		ldr	r1, [r3]
 322 018e 0123     		movs	r3, #1
 323 0190 5A03     		lsls	r2, r3, #13
 324 0192 0123     		movs	r3, #1
 325 0194 9B03     		lsls	r3, r3, #14
 326 0196 1A43     		orrs	r2, r3
 327 0198 334B     		ldr	r3, .L12
 328 019a 0A43     		orrs	r2, r1
 329 019c 1A60     		str	r2, [r3]
 147:adc.c         ****     IOCLR  = (one32 << GS1) | (one32 << GS2);
 330              		.loc 1 147 0
 331 019e 0123     		movs	r3, #1
 332 01a0 5903     		lsls	r1, r3, #13
 333 01a2 0123     		movs	r3, #1
 334 01a4 9A03     		lsls	r2, r3, #14
 335 01a6 314B     		ldr	r3, .L12+4
 336 01a8 0A43     		orrs	r2, r1
 337 01aa 1A60     		str	r2, [r3]
 148:adc.c         **** 
 149:adc.c         **** 	/*	Inicjalizacja wejscia ADC1: AIN1.6 (P0.21)*/
 150:adc.c         **** 	/*	Ustawienie funkcji pinu P0.21 na AIN1.6.
 151:adc.c         **** 	*	Umozliwia po przez przetwornik ADC1 (kanal 6)
 152:adc.c         **** 	*	odczyt przyspieszenia z akcelerometru wzdluz osi X.
 153:adc.c         **** 	*/
 154:adc.c         **** 	PINSEL1 &= ~((one32 << 10) | (one32 << 11));
 338              		.loc 1 154 0
 339 01ac 304B     		ldr	r3, .L12+8
 340 01ae 1A68     		ldr	r2, [r3]
 341 01b0 0123     		movs	r3, #1
 342 01b2 9902     		lsls	r1, r3, #10
 343 01b4 0123     		movs	r3, #1
 344 01b6 DB02     		lsls	r3, r3, #11
 345 01b8 0B43     		orrs	r3, r1
 346 01ba D943     		mvns	r1, r3
 347 01bc 2C4B     		ldr	r3, .L12+8
 348 01be 0A40     		ands	r2, r1
 349 01c0 1A60     		str	r2, [r3]
 155:adc.c         **** 	PINSEL1 |= (one32 << 11);
 350              		.loc 1 155 0
 351 01c2 2B4B     		ldr	r3, .L12+8
 352 01c4 1968     		ldr	r1, [r3]
 353 01c6 0123     		movs	r3, #1
 354 01c8 DA02     		lsls	r2, r3, #11
 355 01ca 294B     		ldr	r3, .L12+8
 356 01cc 0A43     		orrs	r2, r1
 357 01ce 1A60     		str	r2, [r3]
 156:adc.c         **** 	
ARM GAS  C:\Users\embedded\AppData\Local\Temp\cctMD7zZ.s 			page 10


 157:adc.c         **** 	/*	Inicjalizacja wejscia ADC1: AIN1.7 (P0.22)*/
 158:adc.c         **** 	/*	Ustawienie funkcji pinu P0.22 na AIN1.7.
 159:adc.c         **** 	*	Umozliwia po przez przetwornik ADC1 (kanal 7)
 160:adc.c         **** 	*	odczyt przyspieszenia z akcelerometru wzdluz osi Y.
 161:adc.c         **** 	*/
 162:adc.c         **** 	PINSEL1 &= ~((one32 << 12) | (one32 << 13));
 358              		.loc 1 162 0
 359 01d0 274B     		ldr	r3, .L12+8
 360 01d2 1A68     		ldr	r2, [r3]
 361 01d4 0123     		movs	r3, #1
 362 01d6 1903     		lsls	r1, r3, #12
 363 01d8 0123     		movs	r3, #1
 364 01da 5B03     		lsls	r3, r3, #13
 365 01dc 0B43     		orrs	r3, r1
 366 01de D943     		mvns	r1, r3
 367 01e0 234B     		ldr	r3, .L12+8
 368 01e2 0A40     		ands	r2, r1
 369 01e4 1A60     		str	r2, [r3]
 163:adc.c         **** 	PINSEL1 |= (one32 << 12);
 370              		.loc 1 163 0
 371 01e6 224B     		ldr	r3, .L12+8
 372 01e8 1968     		ldr	r1, [r3]
 373 01ea 0123     		movs	r3, #1
 374 01ec 1A03     		lsls	r2, r3, #12
 375 01ee 204B     		ldr	r3, .L12+8
 376 01f0 0A43     		orrs	r2, r1
 377 01f2 1A60     		str	r2, [r3]
 164:adc.c         **** 
 165:adc.c         **** 	/*	Inicjalizacja wejscia ADC0: AIN0.3 (P0.30)*/
 166:adc.c         **** 	/*	Ustawienie funkcji pinu P0.30 na AIN0.3.
 167:adc.c         **** 	*	Umozliwia po przez przetwornik ADC0 (kanal 3)
 168:adc.c         **** 	*	odczyt przyspieszenia z akcelerometru wzdluz osi Z.
 169:adc.c         **** 	*/
 170:adc.c         **** 	PINSEL1 &= ~((one32 << 28) | (one32 << 29));
 378              		.loc 1 170 0
 379 01f4 1E4B     		ldr	r3, .L12+8
 380 01f6 1A68     		ldr	r2, [r3]
 381 01f8 0123     		movs	r3, #1
 382 01fa 1907     		lsls	r1, r3, #28
 383 01fc 0123     		movs	r3, #1
 384 01fe 5B07     		lsls	r3, r3, #29
 385 0200 0B43     		orrs	r3, r1
 386 0202 D943     		mvns	r1, r3
 387 0204 1A4B     		ldr	r3, .L12+8
 388 0206 0A40     		ands	r2, r1
 389 0208 1A60     		str	r2, [r3]
 171:adc.c         **** 	PINSEL1 |= (one32 << 28);
 390              		.loc 1 171 0
 391 020a 194B     		ldr	r3, .L12+8
 392 020c 1968     		ldr	r1, [r3]
 393 020e 0123     		movs	r3, #1
 394 0210 1A07     		lsls	r2, r3, #28
 395 0212 174B     		ldr	r3, .L12+8
 396 0214 0A43     		orrs	r2, r1
 397 0216 1A60     		str	r2, [r3]
 172:adc.c         **** 	
 173:adc.c         **** 	/* Inicjalizacja przetwornikow analogow0-cyfrowych ADC0 i ADC1 */
ARM GAS  C:\Users\embedded\AppData\Local\Temp\cctMD7zZ.s 			page 11


 174:adc.c         **** 
 175:adc.c         **** 	/* Inicjalizacja przetwornika ADC0
 176:adc.c         **** 	*	Wybranie probnego kanalu
 177:adc.c         **** 	*	Ustawienie odpowiedniej wartosci dzielnika dla zegara, aby czestotliwosc taktowania zegara dla A
 178:adc.c         **** 	*	Ustawienie BURST na 0 (sterowanie software'em), umozliwia m.in. wybranie opcji "conversion now" 
 179:adc.c         **** 	*	Ustawienie liczby wykorzystywanych zegarow na 11 (wartosc 0)
 180:adc.c         **** 	*	Ustawienie trybu przetwornika na power-down (wartosc 0)
 181:adc.c         **** 	*	Ustawienie rozpoczrcia konwersji no start (wartosc 1)
 182:adc.c         **** 	*/
 183:adc.c         **** 	ADCR = (one32)                             		| /* Kanal 0 */
 184:adc.c         **** 	       ((((CRYSTAL_FREQUENCY *
 185:adc.c         **** 	         PLL_FACTOR /
 186:adc.c         **** 	         VPBDIV_FACTOR) / 2000000) - 1) << 8)	| /* Ustawienie dzielnika */
 187:adc.c         **** 	       (zero32 << 16)								| /* BURST = 0 */
 398              		.loc 1 187 0
 399 0218 7B68     		ldr	r3, [r7, #4]
 400 021a 1B04     		lsls	r3, r3, #16
 186:adc.c         **** 	       (zero32 << 16)								| /* BURST = 0 */
 401              		.loc 1 186 0
 402 021c 0122     		movs	r2, #1
 403 021e 1A43     		orrs	r2, r3
 188:adc.c         **** 	       (zero32 << 17)								| /* CLKS = 0 */
 404              		.loc 1 188 0
 405 0220 7B68     		ldr	r3, [r7, #4]
 406 0222 5B04     		lsls	r3, r3, #17
 187:adc.c         **** 	       (zero32 << 17)								| /* CLKS = 0 */
 407              		.loc 1 187 0
 408 0224 1A43     		orrs	r2, r3
 189:adc.c         **** 	       (zero32 << 21)								| /* PDN = 0 */
 409              		.loc 1 189 0
 410 0226 7B68     		ldr	r3, [r7, #4]
 411 0228 5B05     		lsls	r3, r3, #21
 188:adc.c         **** 	       (zero32 << 17)								| /* CLKS = 0 */
 412              		.loc 1 188 0
 413 022a 1A43     		orrs	r2, r3
 190:adc.c         **** 	       (zero32 << 24);								  /* START = 0 */
 414              		.loc 1 190 0
 415 022c 7B68     		ldr	r3, [r7, #4]
 416 022e 1B06     		lsls	r3, r3, #24
 189:adc.c         **** 	       (zero32 << 21)								| /* PDN = 0 */
 417              		.loc 1 189 0
 418 0230 1A43     		orrs	r2, r3
 183:adc.c         **** 	       ((((CRYSTAL_FREQUENCY *
 419              		.loc 1 183 0
 420 0232 104B     		ldr	r3, .L12+12
 189:adc.c         **** 	       (zero32 << 21)								| /* PDN = 0 */
 421              		.loc 1 189 0
 422 0234 E021     		movs	r1, #224
 423 0236 4901     		lsls	r1, r1, #5
 424 0238 0A43     		orrs	r2, r1
 183:adc.c         **** 	       ((((CRYSTAL_FREQUENCY *
 425              		.loc 1 183 0
 426 023a 1A60     		str	r2, [r3]
 191:adc.c         **** 	
 192:adc.c         **** 
 193:adc.c         **** 	/*Inicjalizacja przetwornika ADC1
 194:adc.c         **** 	*	Wybranie probnego kanalu
ARM GAS  C:\Users\embedded\AppData\Local\Temp\cctMD7zZ.s 			page 12


 195:adc.c         **** 	*	Ustawienie odpowiedniej wartosci dzielnika dla zegara, aby czestotliwosc taktowania zegara dla A
 196:adc.c         **** 	*	Ustawienie BURST na 0 (sterowanie software'em), umozliwia m.in. wybranie opcji "conversion now" 
 197:adc.c         **** 	*	Ustawienie liczby wykorzystywanych zegarow na 11 (wartosc 0)
 198:adc.c         **** 	*	Ustawienie trybu przetwornika na power-down (wartosc 0)
 199:adc.c         **** 	*	Ustawienie rozpoczecia konwersji no start (wartosc 0)
 200:adc.c         **** 	*/
 201:adc.c         **** 	AD1CR = (1u)                            		| /* Kanal 0 */
 202:adc.c         **** 	       ((((CRYSTAL_FREQUENCY *
 203:adc.c         **** 	         PLL_FACTOR /
 204:adc.c         **** 	         VPBDIV_FACTOR) / 2000000) - 1) << 8)	| /* Ustawienie dzielnika */
 205:adc.c         **** 	       (zero32 << 16)								| /* BURST = 0 */
 427              		.loc 1 205 0
 428 023c 7B68     		ldr	r3, [r7, #4]
 429 023e 1A04     		lsls	r2, r3, #16
 206:adc.c         **** 	       (zero32 << 17)								| /* CLKS = 0 */
 430              		.loc 1 206 0
 431 0240 7B68     		ldr	r3, [r7, #4]
 432 0242 5B04     		lsls	r3, r3, #17
 205:adc.c         **** 	       (zero32 << 17)								| /* CLKS = 0 */
 433              		.loc 1 205 0
 434 0244 1A43     		orrs	r2, r3
 207:adc.c         **** 	       (zero32 << 21)								| /* PDN = 0 */
 435              		.loc 1 207 0
 436 0246 7B68     		ldr	r3, [r7, #4]
 437 0248 5B05     		lsls	r3, r3, #21
 206:adc.c         **** 	       (zero32 << 17)								| /* CLKS = 0 */
 438              		.loc 1 206 0
 439 024a 1A43     		orrs	r2, r3
 208:adc.c         **** 	       (zero32 << 24);								  /* START = 0 */
 440              		.loc 1 208 0
 441 024c 7B68     		ldr	r3, [r7, #4]
 442 024e 1B06     		lsls	r3, r3, #24
 207:adc.c         **** 	       (zero32 << 21)								| /* PDN = 0 */
 443              		.loc 1 207 0
 444 0250 1A43     		orrs	r2, r3
 201:adc.c         **** 	       ((((CRYSTAL_FREQUENCY *
 445              		.loc 1 201 0
 446 0252 094B     		ldr	r3, .L12+16
 207:adc.c         **** 	       (zero32 << 21)								| /* PDN = 0 */
 447              		.loc 1 207 0
 448 0254 0949     		ldr	r1, .L12+20
 449 0256 0A43     		orrs	r2, r1
 201:adc.c         **** 	       ((((CRYSTAL_FREQUENCY *
 450              		.loc 1 201 0
 451 0258 1A60     		str	r2, [r3]
 209:adc.c         **** }
 452              		.loc 1 209 0
 453 025a C046     		nop
 454 025c BD46     		mov	sp, r7
 455 025e 02B0     		add	sp, sp, #8
 456              		@ sp needed
 457 0260 80BC     		pop	{r7}
 458 0262 01BC     		pop	{r0}
 459 0264 0047     		bx	r0
 460              	.L13:
 461 0266 C046     		.align	2
 462              	.L12:
ARM GAS  C:\Users\embedded\AppData\Local\Temp\cctMD7zZ.s 			page 13


 463 0268 088002E0 		.word	-536707064
 464 026c 0C8002E0 		.word	-536707060
 465 0270 04C002E0 		.word	-536690684
 466 0274 004003E0 		.word	-536657920
 467 0278 000006E0 		.word	-536477696
 468 027c 011C0000 		.word	7169
 469              		.cfi_endproc
 470              	.LFE2:
 471              		.size	initAdc, .-initAdc
 472              	.Letext0:
 473              		.file 2 "general.h"
 474              		.file 3 "adc.h"