ARM GAS  C:\Users\embedded\AppData\Local\Temp\ccsTD7zZ.s 			page 1


   1              		.cpu arm7tdmi
   2              		.eabi_attribute 20, 1
   3              		.eabi_attribute 21, 1
   4              		.eabi_attribute 23, 3
   5              		.eabi_attribute 24, 1
   6              		.eabi_attribute 25, 1
   7              		.eabi_attribute 26, 1
   8              		.eabi_attribute 30, 6
   9              		.eabi_attribute 34, 0
  10              		.eabi_attribute 18, 4
  11              		.file	"dac.c"
  12              		.text
  13              	.Ltext0:
  14              		.cfi_sections	.debug_frame
  15              		.global	soundtrack
  16              		.data
  17              		.align	2
  18              		.type	soundtrack, %object
  19              		.size	soundtrack, 3232
  20              	soundtrack:
  21 0000 20       		.byte	32
  22 0001 20       		.byte	32
  23 0002 20       		.byte	32
  24 0003 20       		.byte	32
  25 0004 20       		.byte	32
  26 0005 20       		.byte	32
  27 0006 20       		.byte	32
  28 0007 20       		.byte	32
  29 0008 20       		.byte	32
  30 0009 20       		.byte	32
  31 000a 20       		.byte	32
  32 000b 20       		.byte	32
  33 000c 20       		.byte	32
  34 000d 20       		.byte	32
  35 000e 20       		.byte	32
  36 000f 20       		.byte	32
  37 0010 20       		.byte	32
  38 0011 20       		.byte	32
  39 0012 20       		.byte	32
  40 0013 20       		.byte	32
  41 0014 20       		.byte	32
  42 0015 20       		.byte	32
  43 0016 20       		.byte	32
  44 0017 20       		.byte	32
  45 0018 20       		.byte	32
  46 0019 20       		.byte	32
  47 001a 20       		.byte	32
  48 001b 20       		.byte	32
  49 001c 20       		.byte	32
  50 001d 20       		.byte	32
  51 001e 20       		.byte	32
  52 001f 20       		.byte	32
  53 0020 20       		.byte	32
  54 0021 20       		.byte	32
  55 0022 20       		.byte	32
  56 0023 20       		.byte	32
  57 0024 20       		.byte	32
ARM GAS  C:\Users\embedded\AppData\Local\Temp\ccsTD7zZ.s 			page 2


  58 0025 20       		.byte	32
  59 0026 20       		.byte	32
  60 0027 20       		.byte	32
  61 0028 20       		.byte	32
  62 0029 20       		.byte	32
  63 002a 20       		.byte	32
  64 002b 20       		.byte	32
  65 002c 20       		.byte	32
  66 002d 20       		.byte	32
  67 002e 20       		.byte	32
  68 002f 20       		.byte	32
  69 0030 20       		.byte	32
  70 0031 20       		.byte	32
  71 0032 20       		.byte	32
  72 0033 20       		.byte	32
  73 0034 20       		.byte	32
  74 0035 20       		.byte	32
  75 0036 20       		.byte	32
  76 0037 20       		.byte	32
  77 0038 20       		.byte	32
  78 0039 20       		.byte	32
  79 003a 20       		.byte	32
  80 003b 20       		.byte	32
  81 003c 20       		.byte	32
  82 003d 20       		.byte	32
  83 003e 20       		.byte	32
  84 003f 20       		.byte	32
  85 0040 20       		.byte	32
  86 0041 20       		.byte	32
  87 0042 20       		.byte	32
  88 0043 20       		.byte	32
  89 0044 20       		.byte	32
  90 0045 20       		.byte	32
  91 0046 20       		.byte	32
  92 0047 20       		.byte	32
  93 0048 20       		.byte	32
  94 0049 20       		.byte	32
  95 004a 20       		.byte	32
  96 004b 20       		.byte	32
  97 004c 20       		.byte	32
  98 004d 20       		.byte	32
  99 004e 20       		.byte	32
 100 004f 20       		.byte	32
 101 0050 20       		.byte	32
 102 0051 20       		.byte	32
 103 0052 20       		.byte	32
 104 0053 20       		.byte	32
 105 0054 20       		.byte	32
 106 0055 20       		.byte	32
 107 0056 20       		.byte	32
 108 0057 20       		.byte	32
 109 0058 20       		.byte	32
 110 0059 20       		.byte	32
 111 005a 20       		.byte	32
 112 005b 20       		.byte	32
 113 005c 20       		.byte	32
 114 005d 20       		.byte	32
ARM GAS  C:\Users\embedded\AppData\Local\Temp\ccsTD7zZ.s 			page 3


 115 005e 20       		.byte	32
 116 005f 20       		.byte	32
 117 0060 20       		.byte	32
 118 0061 20       		.byte	32
 119 0062 20       		.byte	32
 120 0063 20       		.byte	32
 121 0064 20       		.byte	32
 122 0065 20       		.byte	32
 123 0066 20       		.byte	32
 124 0067 20       		.byte	32
 125 0068 20       		.byte	32
 126 0069 20       		.byte	32
 127 006a 20       		.byte	32
 128 006b 20       		.byte	32
 129 006c 20       		.byte	32
 130 006d 20       		.byte	32
 131 006e 20       		.byte	32
 132 006f 20       		.byte	32
 133 0070 20       		.byte	32
 134 0071 20       		.byte	32
 135 0072 20       		.byte	32
 136 0073 20       		.byte	32
 137 0074 20       		.byte	32
 138 0075 20       		.byte	32
 139 0076 20       		.byte	32
 140 0077 20       		.byte	32
 141 0078 20       		.byte	32
 142 0079 20       		.byte	32
 143 007a 20       		.byte	32
 144 007b 20       		.byte	32
 145 007c 20       		.byte	32
 146 007d 20       		.byte	32
 147 007e 20       		.byte	32
 148 007f 20       		.byte	32
 149 0080 20       		.byte	32
 150 0081 20       		.byte	32
 151 0082 20       		.byte	32
 152 0083 20       		.byte	32
 153 0084 20       		.byte	32
 154 0085 20       		.byte	32
 155 0086 20       		.byte	32
 156 0087 20       		.byte	32
 157 0088 20       		.byte	32
 158 0089 20       		.byte	32
 159 008a 20       		.byte	32
 160 008b 20       		.byte	32
 161 008c 20       		.byte	32
 162 008d 20       		.byte	32
 163 008e 20       		.byte	32
 164 008f 20       		.byte	32
 165 0090 20       		.byte	32
 166 0091 20       		.byte	32
 167 0092 20       		.byte	32
 168 0093 20       		.byte	32
 169 0094 20       		.byte	32
 170 0095 20       		.byte	32
 171 0096 20       		.byte	32
ARM GAS  C:\Users\embedded\AppData\Local\Temp\ccsTD7zZ.s 			page 4


 172 0097 20       		.byte	32
 173 0098 20       		.byte	32
 174 0099 20       		.byte	32
 175 009a 20       		.byte	32
 176 009b 20       		.byte	32
 177 009c 20       		.byte	32
 178 009d 20       		.byte	32
 179 009e 20       		.byte	32
 180 009f 20       		.byte	32
 181 00a0 20       		.byte	32
 182 00a1 20       		.byte	32
 183 00a2 20       		.byte	32
 184 00a3 20       		.byte	32
 185 00a4 20       		.byte	32
 186 00a5 20       		.byte	32
 187 00a6 20       		.byte	32
 188 00a7 20       		.byte	32
 189 00a8 20       		.byte	32
 190 00a9 20       		.byte	32
 191 00aa 20       		.byte	32
 192 00ab 20       		.byte	32
 193 00ac 20       		.byte	32
 194 00ad 20       		.byte	32
 195 00ae 20       		.byte	32
 196 00af 20       		.byte	32
 197 00b0 20       		.byte	32
 198 00b1 20       		.byte	32
 199 00b2 20       		.byte	32
 200 00b3 20       		.byte	32
 201 00b4 20       		.byte	32
 202 00b5 20       		.byte	32
 203 00b6 20       		.byte	32
 204 00b7 20       		.byte	32
 205 00b8 20       		.byte	32
 206 00b9 20       		.byte	32
 207 00ba 20       		.byte	32
 208 00bb 20       		.byte	32
 209 00bc 20       		.byte	32
 210 00bd 20       		.byte	32
 211 00be 20       		.byte	32
 212 00bf 20       		.byte	32
 213 00c0 20       		.byte	32
 214 00c1 20       		.byte	32
 215 00c2 20       		.byte	32
 216 00c3 20       		.byte	32
 217 00c4 20       		.byte	32
 218 00c5 20       		.byte	32
 219 00c6 20       		.byte	32
 220 00c7 20       		.byte	32
 221 00c8 20       		.byte	32
 222 00c9 20       		.byte	32
 223 00ca 20       		.byte	32
 224 00cb 20       		.byte	32
 225 00cc 20       		.byte	32
 226 00cd 20       		.byte	32
 227 00ce 20       		.byte	32
 228 00cf 20       		.byte	32
ARM GAS  C:\Users\embedded\AppData\Local\Temp\ccsTD7zZ.s 			page 5


 229 00d0 20       		.byte	32
 230 00d1 20       		.byte	32
 231 00d2 20       		.byte	32
 232 00d3 20       		.byte	32
 233 00d4 20       		.byte	32
 234 00d5 20       		.byte	32
 235 00d6 20       		.byte	32
 236 00d7 20       		.byte	32
 237 00d8 20       		.byte	32
 238 00d9 20       		.byte	32
 239 00da 20       		.byte	32
 240 00db 20       		.byte	32
 241 00dc 20       		.byte	32
 242 00dd 20       		.byte	32
 243 00de 20       		.byte	32
 244 00df 20       		.byte	32
 245 00e0 20       		.byte	32
 246 00e1 20       		.byte	32
 247 00e2 20       		.byte	32
 248 00e3 20       		.byte	32
 249 00e4 20       		.byte	32
 250 00e5 20       		.byte	32
 251 00e6 20       		.byte	32
 252 00e7 20       		.byte	32
 253 00e8 20       		.byte	32
 254 00e9 20       		.byte	32
 255 00ea 20       		.byte	32
 256 00eb 20       		.byte	32
 257 00ec 20       		.byte	32
 258 00ed 20       		.byte	32
 259 00ee 20       		.byte	32
 260 00ef 20       		.byte	32
 261 00f0 20       		.byte	32
 262 00f1 20       		.byte	32
 263 00f2 20       		.byte	32
 264 00f3 20       		.byte	32
 265 00f4 20       		.byte	32
 266 00f5 20       		.byte	32
 267 00f6 20       		.byte	32
 268 00f7 20       		.byte	32
 269 00f8 20       		.byte	32
 270 00f9 20       		.byte	32
 271 00fa 20       		.byte	32
 272 00fb 20       		.byte	32
 273 00fc 20       		.byte	32
 274 00fd 20       		.byte	32
 275 00fe 20       		.byte	32
 276 00ff 20       		.byte	32
 277 0100 20       		.byte	32
 278 0101 20       		.byte	32
 279 0102 20       		.byte	32
 280 0103 20       		.byte	32
 281 0104 20       		.byte	32
 282 0105 20       		.byte	32
 283 0106 20       		.byte	32
 284 0107 20       		.byte	32
 285 0108 20       		.byte	32
ARM GAS  C:\Users\embedded\AppData\Local\Temp\ccsTD7zZ.s 			page 6


 286 0109 20       		.byte	32
 287 010a 20       		.byte	32
 288 010b 20       		.byte	32
 289 010c 20       		.byte	32
 290 010d 20       		.byte	32
 291 010e 20       		.byte	32
 292 010f 20       		.byte	32
 293 0110 20       		.byte	32
 294 0111 20       		.byte	32
 295 0112 20       		.byte	32
 296 0113 20       		.byte	32
 297 0114 20       		.byte	32
 298 0115 20       		.byte	32
 299 0116 20       		.byte	32
 300 0117 20       		.byte	32
 301 0118 20       		.byte	32
 302 0119 20       		.byte	32
 303 011a 20       		.byte	32
 304 011b 20       		.byte	32
 305 011c 20       		.byte	32
 306 011d 20       		.byte	32
 307 011e 20       		.byte	32
 308 011f 20       		.byte	32
 309 0120 20       		.byte	32
 310 0121 20       		.byte	32
 311 0122 20       		.byte	32
 312 0123 20       		.byte	32
 313 0124 20       		.byte	32
 314 0125 20       		.byte	32
 315 0126 20       		.byte	32
 316 0127 20       		.byte	32
 317 0128 20       		.byte	32
 318 0129 20       		.byte	32
 319 012a 20       		.byte	32
 320 012b 20       		.byte	32
 321 012c 20       		.byte	32
 322 012d 20       		.byte	32
 323 012e 20       		.byte	32
 324 012f 20       		.byte	32
 325 0130 20       		.byte	32
 326 0131 20       		.byte	32
 327 0132 20       		.byte	32
 328 0133 20       		.byte	32
 329 0134 20       		.byte	32
 330 0135 20       		.byte	32
 331 0136 20       		.byte	32
 332 0137 20       		.byte	32
 333 0138 20       		.byte	32
 334 0139 20       		.byte	32
 335 013a 20       		.byte	32
 336 013b 20       		.byte	32
 337 013c 20       		.byte	32
 338 013d 20       		.byte	32
 339 013e 20       		.byte	32
 340 013f 20       		.byte	32
 341 0140 20       		.byte	32
 342 0141 20       		.byte	32
ARM GAS  C:\Users\embedded\AppData\Local\Temp\ccsTD7zZ.s 			page 7


 343 0142 20       		.byte	32
 344 0143 20       		.byte	32
 345 0144 20       		.byte	32
 346 0145 20       		.byte	32
 347 0146 20       		.byte	32
 348 0147 20       		.byte	32
 349 0148 20       		.byte	32
 350 0149 20       		.byte	32
 351 014a 20       		.byte	32
 352 014b 20       		.byte	32
 353 014c 20       		.byte	32
 354 014d 20       		.byte	32
 355 014e 20       		.byte	32
 356 014f 20       		.byte	32
 357 0150 20       		.byte	32
 358 0151 20       		.byte	32
 359 0152 20       		.byte	32
 360 0153 20       		.byte	32
 361 0154 20       		.byte	32
 362 0155 20       		.byte	32
 363 0156 20       		.byte	32
 364 0157 20       		.byte	32
 365 0158 20       		.byte	32
 366 0159 20       		.byte	32
 367 015a 20       		.byte	32
 368 015b 20       		.byte	32
 369 015c 20       		.byte	32
 370 015d 20       		.byte	32
 371 015e 20       		.byte	32
 372 015f 20       		.byte	32
 373 0160 20       		.byte	32
 374 0161 20       		.byte	32
 375 0162 20       		.byte	32
 376 0163 20       		.byte	32
 377 0164 20       		.byte	32
 378 0165 20       		.byte	32
 379 0166 20       		.byte	32
 380 0167 20       		.byte	32
 381 0168 20       		.byte	32
 382 0169 20       		.byte	32
 383 016a 20       		.byte	32
 384 016b 20       		.byte	32
 385 016c 20       		.byte	32
 386 016d 20       		.byte	32
 387 016e 20       		.byte	32
 388 016f 20       		.byte	32
 389 0170 20       		.byte	32
 390 0171 20       		.byte	32
 391 0172 20       		.byte	32
 392 0173 20       		.byte	32
 393 0174 20       		.byte	32
 394 0175 20       		.byte	32
 395 0176 20       		.byte	32
 396 0177 20       		.byte	32
 397 0178 20       		.byte	32
 398 0179 20       		.byte	32
 399 017a 20       		.byte	32
ARM GAS  C:\Users\embedded\AppData\Local\Temp\ccsTD7zZ.s 			page 8


 400 017b 20       		.byte	32
 401 017c 20       		.byte	32
 402 017d 20       		.byte	32
 403 017e 20       		.byte	32
 404 017f 20       		.byte	32
 405 0180 20       		.byte	32
 406 0181 20       		.byte	32
 407 0182 20       		.byte	32
 408 0183 20       		.byte	32
 409 0184 20       		.byte	32
 410 0185 20       		.byte	32
 411 0186 20       		.byte	32
 412 0187 20       		.byte	32
 413 0188 20       		.byte	32
 414 0189 20       		.byte	32
 415 018a 20       		.byte	32
 416 018b 20       		.byte	32
 417 018c 20       		.byte	32
 418 018d 20       		.byte	32
 419 018e 20       		.byte	32
 420 018f 20       		.byte	32
 421 0190 20       		.byte	32
 422 0191 20       		.byte	32
 423 0192 20       		.byte	32
 424 0193 20       		.byte	32
 425 0194 20       		.byte	32
 426 0195 20       		.byte	32
 427 0196 20       		.byte	32
 428 0197 20       		.byte	32
 429 0198 20       		.byte	32
 430 0199 20       		.byte	32
 431 019a 20       		.byte	32
 432 019b 20       		.byte	32
 433 019c 20       		.byte	32
 434 019d 20       		.byte	32
 435 019e 20       		.byte	32
 436 019f 20       		.byte	32
 437 01a0 20       		.byte	32
 438 01a1 20       		.byte	32
 439 01a2 20       		.byte	32
 440 01a3 20       		.byte	32
 441 01a4 20       		.byte	32
 442 01a5 20       		.byte	32
 443 01a6 20       		.byte	32
 444 01a7 20       		.byte	32
 445 01a8 20       		.byte	32
 446 01a9 20       		.byte	32
 447 01aa 20       		.byte	32
 448 01ab 20       		.byte	32
 449 01ac 20       		.byte	32
 450 01ad 20       		.byte	32
 451 01ae 20       		.byte	32
 452 01af 20       		.byte	32
 453 01b0 20       		.byte	32
 454 01b1 20       		.byte	32
 455 01b2 20       		.byte	32
 456 01b3 20       		.byte	32
ARM GAS  C:\Users\embedded\AppData\Local\Temp\ccsTD7zZ.s 			page 9


 457 01b4 20       		.byte	32
 458 01b5 20       		.byte	32
 459 01b6 20       		.byte	32
 460 01b7 20       		.byte	32
 461 01b8 20       		.byte	32
 462 01b9 20       		.byte	32
 463 01ba 20       		.byte	32
 464 01bb 20       		.byte	32
 465 01bc 20       		.byte	32
 466 01bd 20       		.byte	32
 467 01be 20       		.byte	32
 468 01bf 20       		.byte	32
 469 01c0 20       		.byte	32
 470 01c1 20       		.byte	32
 471 01c2 20       		.byte	32
 472 01c3 20       		.byte	32
 473 01c4 20       		.byte	32
 474 01c5 20       		.byte	32
 475 01c6 20       		.byte	32
 476 01c7 20       		.byte	32
 477 01c8 20       		.byte	32
 478 01c9 20       		.byte	32
 479 01ca 20       		.byte	32
 480 01cb 20       		.byte	32
 481 01cc 20       		.byte	32
 482 01cd 20       		.byte	32
 483 01ce 20       		.byte	32
 484 01cf 20       		.byte	32
 485 01d0 20       		.byte	32
 486 01d1 20       		.byte	32
 487 01d2 20       		.byte	32
 488 01d3 20       		.byte	32
 489 01d4 20       		.byte	32
 490 01d5 20       		.byte	32
 491 01d6 20       		.byte	32
 492 01d7 20       		.byte	32
 493 01d8 20       		.byte	32
 494 01d9 20       		.byte	32
 495 01da 20       		.byte	32
 496 01db 20       		.byte	32
 497 01dc 20       		.byte	32
 498 01dd 20       		.byte	32
 499 01de 20       		.byte	32
 500 01df 20       		.byte	32
 501 01e0 20       		.byte	32
 502 01e1 20       		.byte	32
 503 01e2 20       		.byte	32
 504 01e3 20       		.byte	32
 505 01e4 20       		.byte	32
 506 01e5 20       		.byte	32
 507 01e6 20       		.byte	32
 508 01e7 20       		.byte	32
 509 01e8 20       		.byte	32
 510 01e9 20       		.byte	32
 511 01ea 20       		.byte	32
 512 01eb 20       		.byte	32
 513 01ec 20       		.byte	32
ARM GAS  C:\Users\embedded\AppData\Local\Temp\ccsTD7zZ.s 			page 10


 514 01ed 20       		.byte	32
 515 01ee 20       		.byte	32
 516 01ef 20       		.byte	32
 517 01f0 20       		.byte	32
 518 01f1 20       		.byte	32
 519 01f2 20       		.byte	32
 520 01f3 20       		.byte	32
 521 01f4 20       		.byte	32
 522 01f5 20       		.byte	32
 523 01f6 20       		.byte	32
 524 01f7 20       		.byte	32
 525 01f8 20       		.byte	32
 526 01f9 20       		.byte	32
 527 01fa 20       		.byte	32
 528 01fb 20       		.byte	32
 529 01fc 20       		.byte	32
 530 01fd 20       		.byte	32
 531 01fe 20       		.byte	32
 532 01ff 20       		.byte	32
 533 0200 20       		.byte	32
 534 0201 20       		.byte	32
 535 0202 20       		.byte	32
 536 0203 20       		.byte	32
 537 0204 20       		.byte	32
 538 0205 20       		.byte	32
 539 0206 20       		.byte	32
 540 0207 20       		.byte	32
 541 0208 20       		.byte	32
 542 0209 20       		.byte	32
 543 020a 20       		.byte	32
 544 020b 20       		.byte	32
 545 020c 20       		.byte	32
 546 020d 20       		.byte	32
 547 020e 20       		.byte	32
 548 020f 20       		.byte	32
 549 0210 20       		.byte	32
 550 0211 20       		.byte	32
 551 0212 20       		.byte	32
 552 0213 20       		.byte	32
 553 0214 20       		.byte	32
 554 0215 20       		.byte	32
 555 0216 20       		.byte	32
 556 0217 20       		.byte	32
 557 0218 20       		.byte	32
 558 0219 20       		.byte	32
 559 021a 20       		.byte	32
 560 021b 20       		.byte	32
 561 021c 20       		.byte	32
 562 021d 20       		.byte	32
 563 021e 20       		.byte	32
 564 021f 20       		.byte	32
 565 0220 20       		.byte	32
 566 0221 20       		.byte	32
 567 0222 20       		.byte	32
 568 0223 20       		.byte	32
 569 0224 20       		.byte	32
 570 0225 20       		.byte	32
ARM GAS  C:\Users\embedded\AppData\Local\Temp\ccsTD7zZ.s 			page 11


 571 0226 20       		.byte	32
 572 0227 20       		.byte	32
 573 0228 20       		.byte	32
 574 0229 20       		.byte	32
 575 022a 20       		.byte	32
 576 022b 20       		.byte	32
 577 022c 20       		.byte	32
 578 022d 20       		.byte	32
 579 022e 20       		.byte	32
 580 022f 20       		.byte	32
 581 0230 20       		.byte	32
 582 0231 20       		.byte	32
 583 0232 20       		.byte	32
 584 0233 20       		.byte	32
 585 0234 20       		.byte	32
 586 0235 20       		.byte	32
 587 0236 20       		.byte	32
 588 0237 20       		.byte	32
 589 0238 20       		.byte	32
 590 0239 20       		.byte	32
 591 023a 20       		.byte	32
 592 023b 20       		.byte	32
 593 023c 20       		.byte	32
 594 023d 20       		.byte	32
 595 023e 20       		.byte	32
 596 023f 20       		.byte	32
 597 0240 20       		.byte	32
 598 0241 20       		.byte	32
 599 0242 20       		.byte	32
 600 0243 20       		.byte	32
 601 0244 20       		.byte	32
 602 0245 20       		.byte	32
 603 0246 20       		.byte	32
 604 0247 20       		.byte	32
 605 0248 20       		.byte	32
 606 0249 20       		.byte	32
 607 024a 20       		.byte	32
 608 024b 20       		.byte	32
 609 024c 20       		.byte	32
 610 024d 20       		.byte	32
 611 024e 20       		.byte	32
 612 024f 20       		.byte	32
 613 0250 20       		.byte	32
 614 0251 20       		.byte	32
 615 0252 20       		.byte	32
 616 0253 20       		.byte	32
 617 0254 20       		.byte	32
 618 0255 20       		.byte	32
 619 0256 20       		.byte	32
 620 0257 20       		.byte	32
 621 0258 20       		.byte	32
 622 0259 20       		.byte	32
 623 025a 20       		.byte	32
 624 025b 20       		.byte	32
 625 025c 20       		.byte	32
 626 025d 20       		.byte	32
 627 025e FF       		.byte	-1
ARM GAS  C:\Users\embedded\AppData\Local\Temp\ccsTD7zZ.s 			page 12


 628 025f FF       		.byte	-1
 629 0260 FF       		.byte	-1
 630 0261 FF       		.byte	-1
 631 0262 FF       		.byte	-1
 632 0263 FF       		.byte	-1
 633 0264 FF       		.byte	-1
 634 0265 FF       		.byte	-1
 635 0266 20       		.byte	32
 636 0267 20       		.byte	32
 637 0268 20       		.byte	32
 638 0269 20       		.byte	32
 639 026a 20       		.byte	32
 640 026b 20       		.byte	32
 641 026c 20       		.byte	32
 642 026d 20       		.byte	32
 643 026e 01       		.byte	1
 644 026f 20       		.byte	32
 645 0270 20       		.byte	32
 646 0271 20       		.byte	32
 647 0272 20       		.byte	32
 648 0273 20       		.byte	32
 649 0274 20       		.byte	32
 650 0275 20       		.byte	32
 651 0276 20       		.byte	32
 652 0277 20       		.byte	32
 653 0278 20       		.byte	32
 654 0279 20       		.byte	32
 655 027a 20       		.byte	32
 656 027b 20       		.byte	32
 657 027c 20       		.byte	32
 658 027d 20       		.byte	32
 659 027e 20       		.byte	32
 660 027f 20       		.byte	32
 661 0280 20       		.byte	32
 662 0281 20       		.byte	32
 663 0282 20       		.byte	32
 664 0283 20       		.byte	32
 665 0284 20       		.byte	32
 666 0285 20       		.byte	32
 667 0286 20       		.byte	32
 668 0287 20       		.byte	32
 669 0288 20       		.byte	32
 670 0289 20       		.byte	32
 671 028a 01       		.byte	1
 672 028b 20       		.byte	32
 673 028c 01       		.byte	1
 674 028d 20       		.byte	32
 675 028e 20       		.byte	32
 676 028f 20       		.byte	32
 677 0290 20       		.byte	32
 678 0291 20       		.byte	32
 679 0292 FF       		.byte	-1
 680 0293 FF       		.byte	-1
 681 0294 FF       		.byte	-1
 682 0295 FF       		.byte	-1
 683 0296 20       		.byte	32
 684 0297 20       		.byte	32
ARM GAS  C:\Users\embedded\AppData\Local\Temp\ccsTD7zZ.s 			page 13


 685 0298 20       		.byte	32
 686 0299 20       		.byte	32
 687 029a 20       		.byte	32
 688 029b 20       		.byte	32
 689 029c FF       		.byte	-1
 690 029d FF       		.byte	-1
 691 029e FF       		.byte	-1
 692 029f FF       		.byte	-1
 693 02a0 FF       		.byte	-1
 694 02a1 FF       		.byte	-1
 695 02a2 FF       		.byte	-1
 696 02a3 FF       		.byte	-1
 697 02a4 20       		.byte	32
 698 02a5 20       		.byte	32
 699 02a6 20       		.byte	32
 700 02a7 20       		.byte	32
 701 02a8 20       		.byte	32
 702 02a9 20       		.byte	32
 703 02aa FF       		.byte	-1
 704 02ab FF       		.byte	-1
 705 02ac FF       		.byte	-1
 706 02ad FF       		.byte	-1
 707 02ae 20       		.byte	32
 708 02af 20       		.byte	32
 709 02b0 20       		.byte	32
 710 02b1 20       		.byte	32
 711 02b2 FF       		.byte	-1
 712 02b3 FF       		.byte	-1
 713 02b4 FF       		.byte	-1
 714 02b5 FF       		.byte	-1
 715 02b6 FF       		.byte	-1
 716 02b7 FF       		.byte	-1
 717 02b8 20       		.byte	32
 718 02b9 20       		.byte	32
 719 02ba FF       		.byte	-1
 720 02bb FF       		.byte	-1
 721 02bc FF       		.byte	-1
 722 02bd FF       		.byte	-1
 723 02be 20       		.byte	32
 724 02bf 20       		.byte	32
 725 02c0 01       		.byte	1
 726 02c1 20       		.byte	32
 727 02c2 20       		.byte	32
 728 02c3 20       		.byte	32
 729 02c4 01       		.byte	1
 730 02c5 20       		.byte	32
 731 02c6 01       		.byte	1
 732 02c7 20       		.byte	32
 733 02c8 20       		.byte	32
 734 02c9 20       		.byte	32
 735 02ca 20       		.byte	32
 736 02cb 20       		.byte	32
 737 02cc 20       		.byte	32
 738 02cd 20       		.byte	32
 739 02ce 20       		.byte	32
 740 02cf 20       		.byte	32
 741 02d0 01       		.byte	1
ARM GAS  C:\Users\embedded\AppData\Local\Temp\ccsTD7zZ.s 			page 14


 742 02d1 20       		.byte	32
 743 02d2 FF       		.byte	-1
 744 02d3 FF       		.byte	-1
 745 02d4 FF       		.byte	-1
 746 02d5 FF       		.byte	-1
 747 02d6 20       		.byte	32
 748 02d7 20       		.byte	32
 749 02d8 FF       		.byte	-1
 750 02d9 FF       		.byte	-1
 751 02da FF       		.byte	-1
 752 02db FF       		.byte	-1
 753 02dc 20       		.byte	32
 754 02dd 20       		.byte	32
 755 02de 20       		.byte	32
 756 02df 20       		.byte	32
 757 02e0 20       		.byte	32
 758 02e1 20       		.byte	32
 759 02e2 20       		.byte	32
 760 02e3 20       		.byte	32
 761 02e4 20       		.byte	32
 762 02e5 20       		.byte	32
 763 02e6 20       		.byte	32
 764 02e7 20       		.byte	32
 765 02e8 FF       		.byte	-1
 766 02e9 FF       		.byte	-1
 767 02ea FF       		.byte	-1
 768 02eb FF       		.byte	-1
 769 02ec 20       		.byte	32
 770 02ed 20       		.byte	32
 771 02ee FF       		.byte	-1
 772 02ef FF       		.byte	-1
 773 02f0 FE       		.byte	-2
 774 02f1 FF       		.byte	-1
 775 02f2 FE       		.byte	-2
 776 02f3 FF       		.byte	-1
 777 02f4 FF       		.byte	-1
 778 02f5 FF       		.byte	-1
 779 02f6 01       		.byte	1
 780 02f7 20       		.byte	32
 781 02f8 01       		.byte	1
 782 02f9 20       		.byte	32
 783 02fa 01       		.byte	1
 784 02fb 20       		.byte	32
 785 02fc 01       		.byte	1
 786 02fd 20       		.byte	32
 787 02fe 01       		.byte	1
 788 02ff 20       		.byte	32
 789 0300 01       		.byte	1
 790 0301 20       		.byte	32
 791 0302 01       		.byte	1
 792 0303 20       		.byte	32
 793 0304 20       		.byte	32
 794 0305 20       		.byte	32
 795 0306 FF       		.byte	-1
 796 0307 FF       		.byte	-1
 797 0308 FF       		.byte	-1
 798 0309 FF       		.byte	-1
ARM GAS  C:\Users\embedded\AppData\Local\Temp\ccsTD7zZ.s 			page 15


 799 030a FF       		.byte	-1
 800 030b FF       		.byte	-1
 801 030c FE       		.byte	-2
 802 030d FF       		.byte	-1
 803 030e FF       		.byte	-1
 804 030f FF       		.byte	-1
 805 0310 20       		.byte	32
 806 0311 20       		.byte	32
 807 0312 20       		.byte	32
 808 0313 20       		.byte	32
 809 0314 20       		.byte	32
 810 0315 20       		.byte	32
 811 0316 20       		.byte	32
 812 0317 20       		.byte	32
 813 0318 20       		.byte	32
 814 0319 20       		.byte	32
 815 031a 01       		.byte	1
 816 031b 20       		.byte	32
 817 031c FF       		.byte	-1
 818 031d FF       		.byte	-1
 819 031e FD       		.byte	-3
 820 031f FF       		.byte	-1
 821 0320 FE       		.byte	-2
 822 0321 FF       		.byte	-1
 823 0322 FF       		.byte	-1
 824 0323 FF       		.byte	-1
 825 0324 FF       		.byte	-1
 826 0325 FF       		.byte	-1
 827 0326 FF       		.byte	-1
 828 0327 FF       		.byte	-1
 829 0328 20       		.byte	32
 830 0329 20       		.byte	32
 831 032a 20       		.byte	32
 832 032b 20       		.byte	32
 833 032c FF       		.byte	-1
 834 032d FF       		.byte	-1
 835 032e FF       		.byte	-1
 836 032f FF       		.byte	-1
 837 0330 FF       		.byte	-1
 838 0331 FF       		.byte	-1
 839 0332 FE       		.byte	-2
 840 0333 FF       		.byte	-1
 841 0334 FE       		.byte	-2
 842 0335 FF       		.byte	-1
 843 0336 FF       		.byte	-1
 844 0337 FF       		.byte	-1
 845 0338 FF       		.byte	-1
 846 0339 FF       		.byte	-1
 847 033a 20       		.byte	32
 848 033b 20       		.byte	32
 849 033c 20       		.byte	32
 850 033d 20       		.byte	32
 851 033e 02       		.byte	2
 852 033f 20       		.byte	32
 853 0340 03       		.byte	3
 854 0341 20       		.byte	32
 855 0342 20       		.byte	32
ARM GAS  C:\Users\embedded\AppData\Local\Temp\ccsTD7zZ.s 			page 16


 856 0343 20       		.byte	32
 857 0344 FF       		.byte	-1
 858 0345 FF       		.byte	-1
 859 0346 20       		.byte	32
 860 0347 20       		.byte	32
 861 0348 20       		.byte	32
 862 0349 20       		.byte	32
 863 034a FF       		.byte	-1
 864 034b FF       		.byte	-1
 865 034c FF       		.byte	-1
 866 034d FF       		.byte	-1
 867 034e FF       		.byte	-1
 868 034f FF       		.byte	-1
 869 0350 20       		.byte	32
 870 0351 20       		.byte	32
 871 0352 20       		.byte	32
 872 0353 20       		.byte	32
 873 0354 FF       		.byte	-1
 874 0355 FF       		.byte	-1
 875 0356 01       		.byte	1
 876 0357 20       		.byte	32
 877 0358 01       		.byte	1
 878 0359 20       		.byte	32
 879 035a 20       		.byte	32
 880 035b 20       		.byte	32
 881 035c 20       		.byte	32
 882 035d 20       		.byte	32
 883 035e FF       		.byte	-1
 884 035f FF       		.byte	-1
 885 0360 20       		.byte	32
 886 0361 20       		.byte	32
 887 0362 01       		.byte	1
 888 0363 20       		.byte	32
 889 0364 01       		.byte	1
 890 0365 20       		.byte	32
 891 0366 20       		.byte	32
 892 0367 20       		.byte	32
 893 0368 20       		.byte	32
 894 0369 20       		.byte	32
 895 036a 01       		.byte	1
 896 036b 20       		.byte	32
 897 036c 01       		.byte	1
 898 036d 20       		.byte	32
 899 036e 01       		.byte	1
 900 036f 20       		.byte	32
 901 0370 20       		.byte	32
 902 0371 20       		.byte	32
 903 0372 FF       		.byte	-1
 904 0373 FF       		.byte	-1
 905 0374 20       		.byte	32
 906 0375 20       		.byte	32
 907 0376 20       		.byte	32
 908 0377 20       		.byte	32
 909 0378 20       		.byte	32
 910 0379 20       		.byte	32
 911 037a 02       		.byte	2
 912 037b 20       		.byte	32
ARM GAS  C:\Users\embedded\AppData\Local\Temp\ccsTD7zZ.s 			page 17


 913 037c 01       		.byte	1
 914 037d 20       		.byte	32
 915 037e 20       		.byte	32
 916 037f 20       		.byte	32
 917 0380 20       		.byte	32
 918 0381 20       		.byte	32
 919 0382 20       		.byte	32
 920 0383 20       		.byte	32
 921 0384 01       		.byte	1
 922 0385 20       		.byte	32
 923 0386 01       		.byte	1
 924 0387 20       		.byte	32
 925 0388 20       		.byte	32
 926 0389 20       		.byte	32
 927 038a 20       		.byte	32
 928 038b 20       		.byte	32
 929 038c FF       		.byte	-1
 930 038d FF       		.byte	-1
 931 038e FE       		.byte	-2
 932 038f FF       		.byte	-1
 933 0390 01       		.byte	1
 934 0391 20       		.byte	32
 935 0392 01       		.byte	1
 936 0393 20       		.byte	32
 937 0394 01       		.byte	1
 938 0395 20       		.byte	32
 939 0396 02       		.byte	2
 940 0397 20       		.byte	32
 941 0398 20       		.byte	32
 942 0399 20       		.byte	32
 943 039a 01       		.byte	1
 944 039b 20       		.byte	32
 945 039c 02       		.byte	2
 946 039d 20       		.byte	32
 947 039e 02       		.byte	2
 948 039f 20       		.byte	32
 949 03a0 02       		.byte	2
 950 03a1 20       		.byte	32
 951 03a2 01       		.byte	1
 952 03a3 20       		.byte	32
 953 03a4 FF       		.byte	-1
 954 03a5 FF       		.byte	-1
 955 03a6 FF       		.byte	-1
 956 03a7 FF       		.byte	-1
 957 03a8 20       		.byte	32
 958 03a9 20       		.byte	32
 959 03aa FF       		.byte	-1
 960 03ab FF       		.byte	-1
 961 03ac FF       		.byte	-1
 962 03ad FF       		.byte	-1
 963 03ae FF       		.byte	-1
 964 03af FF       		.byte	-1
 965 03b0 20       		.byte	32
 966 03b1 20       		.byte	32
 967 03b2 20       		.byte	32
 968 03b3 20       		.byte	32
 969 03b4 FF       		.byte	-1
ARM GAS  C:\Users\embedded\AppData\Local\Temp\ccsTD7zZ.s 			page 18


 970 03b5 FF       		.byte	-1
 971 03b6 01       		.byte	1
 972 03b7 20       		.byte	32
 973 03b8 01       		.byte	1
 974 03b9 20       		.byte	32
 975 03ba 20       		.byte	32
 976 03bb 20       		.byte	32
 977 03bc 20       		.byte	32
 978 03bd 20       		.byte	32
 979 03be 01       		.byte	1
 980 03bf 20       		.byte	32
 981 03c0 20       		.byte	32
 982 03c1 20       		.byte	32
 983 03c2 20       		.byte	32
 984 03c3 20       		.byte	32
 985 03c4 FF       		.byte	-1
 986 03c5 FF       		.byte	-1
 987 03c6 FF       		.byte	-1
 988 03c7 FF       		.byte	-1
 989 03c8 01       		.byte	1
 990 03c9 20       		.byte	32
 991 03ca 03       		.byte	3
 992 03cb 20       		.byte	32
 993 03cc 02       		.byte	2
 994 03cd 20       		.byte	32
 995 03ce FF       		.byte	-1
 996 03cf FF       		.byte	-1
 997 03d0 FF       		.byte	-1
 998 03d1 FF       		.byte	-1
 999 03d2 01       		.byte	1
 1000 03d3 20       		.byte	32
 1001 03d4 20       		.byte	32
 1002 03d5 20       		.byte	32
 1003 03d6 20       		.byte	32
 1004 03d7 20       		.byte	32
 1005 03d8 01       		.byte	1
 1006 03d9 20       		.byte	32
 1007 03da FF       		.byte	-1
 1008 03db FF       		.byte	-1
 1009 03dc FE       		.byte	-2
 1010 03dd FF       		.byte	-1
 1011 03de FF       		.byte	-1
 1012 03df FF       		.byte	-1
 1013 03e0 20       		.byte	32
 1014 03e1 20       		.byte	32
 1015 03e2 FF       		.byte	-1
 1016 03e3 FF       		.byte	-1
 1017 03e4 20       		.byte	32
 1018 03e5 20       		.byte	32
 1019 03e6 20       		.byte	32
 1020 03e7 20       		.byte	32
 1021 03e8 20       		.byte	32
 1022 03e9 20       		.byte	32
 1023 03ea FF       		.byte	-1
 1024 03eb FF       		.byte	-1
 1025 03ec FF       		.byte	-1
 1026 03ed FF       		.byte	-1
ARM GAS  C:\Users\embedded\AppData\Local\Temp\ccsTD7zZ.s 			page 19


 1027 03ee FF       		.byte	-1
 1028 03ef FF       		.byte	-1
 1029 03f0 FF       		.byte	-1
 1030 03f1 FF       		.byte	-1
 1031 03f2 01       		.byte	1
 1032 03f3 20       		.byte	32
 1033 03f4 20       		.byte	32
 1034 03f5 20       		.byte	32
 1035 03f6 20       		.byte	32
 1036 03f7 20       		.byte	32
 1037 03f8 20       		.byte	32
 1038 03f9 20       		.byte	32
 1039 03fa FF       		.byte	-1
 1040 03fb FF       		.byte	-1
 1041 03fc FE       		.byte	-2
 1042 03fd FF       		.byte	-1
 1043 03fe FF       		.byte	-1
 1044 03ff FF       		.byte	-1
 1045 0400 FF       		.byte	-1
 1046 0401 FF       		.byte	-1
 1047 0402 20       		.byte	32
 1048 0403 20       		.byte	32
 1049 0404 20       		.byte	32
 1050 0405 20       		.byte	32
 1051 0406 20       		.byte	32
 1052 0407 20       		.byte	32
 1053 0408 20       		.byte	32
 1054 0409 20       		.byte	32
 1055 040a 20       		.byte	32
 1056 040b 20       		.byte	32
 1057 040c 20       		.byte	32
 1058 040d 20       		.byte	32
 1059 040e FF       		.byte	-1
 1060 040f FF       		.byte	-1
 1061 0410 20       		.byte	32
 1062 0411 20       		.byte	32
 1063 0412 01       		.byte	1
 1064 0413 20       		.byte	32
 1065 0414 01       		.byte	1
 1066 0415 20       		.byte	32
 1067 0416 20       		.byte	32
 1068 0417 20       		.byte	32
 1069 0418 20       		.byte	32
 1070 0419 20       		.byte	32
 1071 041a 01       		.byte	1
 1072 041b 20       		.byte	32
 1073 041c 20       		.byte	32
 1074 041d 20       		.byte	32
 1075 041e 20       		.byte	32
 1076 041f 20       		.byte	32
 1077 0420 FF       		.byte	-1
 1078 0421 FF       		.byte	-1
 1079 0422 20       		.byte	32
 1080 0423 20       		.byte	32
 1081 0424 01       		.byte	1
 1082 0425 20       		.byte	32
 1083 0426 FF       		.byte	-1
ARM GAS  C:\Users\embedded\AppData\Local\Temp\ccsTD7zZ.s 			page 20


 1084 0427 FF       		.byte	-1
 1085 0428 20       		.byte	32
 1086 0429 20       		.byte	32
 1087 042a 01       		.byte	1
 1088 042b 20       		.byte	32
 1089 042c 02       		.byte	2
 1090 042d 20       		.byte	32
 1091 042e 01       		.byte	1
 1092 042f 20       		.byte	32
 1093 0430 20       		.byte	32
 1094 0431 20       		.byte	32
 1095 0432 01       		.byte	1
 1096 0433 20       		.byte	32
 1097 0434 01       		.byte	1
 1098 0435 20       		.byte	32
 1099 0436 01       		.byte	1
 1100 0437 20       		.byte	32
 1101 0438 01       		.byte	1
 1102 0439 20       		.byte	32
 1103 043a 01       		.byte	1
 1104 043b 20       		.byte	32
 1105 043c 01       		.byte	1
 1106 043d 20       		.byte	32
 1107 043e 01       		.byte	1
 1108 043f 20       		.byte	32
 1109 0440 FF       		.byte	-1
 1110 0441 FF       		.byte	-1
 1111 0442 FE       		.byte	-2
 1112 0443 FF       		.byte	-1
 1113 0444 FF       		.byte	-1
 1114 0445 FF       		.byte	-1
 1115 0446 20       		.byte	32
 1116 0447 20       		.byte	32
 1117 0448 FF       		.byte	-1
 1118 0449 FF       		.byte	-1
 1119 044a 01       		.byte	1
 1120 044b 20       		.byte	32
 1121 044c 01       		.byte	1
 1122 044d 20       		.byte	32
 1123 044e 20       		.byte	32
 1124 044f 20       		.byte	32
 1125 0450 20       		.byte	32
 1126 0451 20       		.byte	32
 1127 0452 FF       		.byte	-1
 1128 0453 FF       		.byte	-1
 1129 0454 FF       		.byte	-1
 1130 0455 FF       		.byte	-1
 1131 0456 20       		.byte	32
 1132 0457 20       		.byte	32
 1133 0458 20       		.byte	32
 1134 0459 20       		.byte	32
 1135 045a 20       		.byte	32
 1136 045b 20       		.byte	32
 1137 045c 20       		.byte	32
 1138 045d 20       		.byte	32
 1139 045e 20       		.byte	32
 1140 045f 20       		.byte	32
ARM GAS  C:\Users\embedded\AppData\Local\Temp\ccsTD7zZ.s 			page 21


 1141 0460 20       		.byte	32
 1142 0461 20       		.byte	32
 1143 0462 FD       		.byte	-3
 1144 0463 FF       		.byte	-1
 1145 0464 FE       		.byte	-2
 1146 0465 FF       		.byte	-1
 1147 0466 20       		.byte	32
 1148 0467 20       		.byte	32
 1149 0468 FF       		.byte	-1
 1150 0469 FF       		.byte	-1
 1151 046a 20       		.byte	32
 1152 046b 20       		.byte	32
 1153 046c 20       		.byte	32
 1154 046d 20       		.byte	32
 1155 046e FE       		.byte	-2
 1156 046f FF       		.byte	-1
 1157 0470 FD       		.byte	-3
 1158 0471 FF       		.byte	-1
 1159 0472 20       		.byte	32
 1160 0473 20       		.byte	32
 1161 0474 02       		.byte	2
 1162 0475 20       		.byte	32
 1163 0476 01       		.byte	1
 1164 0477 20       		.byte	32
 1165 0478 FF       		.byte	-1
 1166 0479 FF       		.byte	-1
 1167 047a FF       		.byte	-1
 1168 047b FF       		.byte	-1
 1169 047c FF       		.byte	-1
 1170 047d FF       		.byte	-1
 1171 047e 20       		.byte	32
 1172 047f 20       		.byte	32
 1173 0480 01       		.byte	1
 1174 0481 20       		.byte	32
 1175 0482 FF       		.byte	-1
 1176 0483 FF       		.byte	-1
 1177 0484 FF       		.byte	-1
 1178 0485 FF       		.byte	-1
 1179 0486 02       		.byte	2
 1180 0487 20       		.byte	32
 1181 0488 01       		.byte	1
 1182 0489 20       		.byte	32
 1183 048a 20       		.byte	32
 1184 048b 20       		.byte	32
 1185 048c 01       		.byte	1
 1186 048d 20       		.byte	32
 1187 048e 01       		.byte	1
 1188 048f 20       		.byte	32
 1189 0490 20       		.byte	32
 1190 0491 20       		.byte	32
 1191 0492 20       		.byte	32
 1192 0493 20       		.byte	32
 1193 0494 FF       		.byte	-1
 1194 0495 FF       		.byte	-1
 1195 0496 FF       		.byte	-1
 1196 0497 FF       		.byte	-1
 1197 0498 FD       		.byte	-3
ARM GAS  C:\Users\embedded\AppData\Local\Temp\ccsTD7zZ.s 			page 22


 1198 0499 FF       		.byte	-1
 1199 049a FC       		.byte	-4
 1200 049b FF       		.byte	-1
 1201 049c FE       		.byte	-2
 1202 049d FF       		.byte	-1
 1203 049e FF       		.byte	-1
 1204 049f FF       		.byte	-1
 1205 04a0 20       		.byte	32
 1206 04a1 20       		.byte	32
 1207 04a2 01       		.byte	1
 1208 04a3 20       		.byte	32
 1209 04a4 20       		.byte	32
 1210 04a5 20       		.byte	32
 1211 04a6 20       		.byte	32
 1212 04a7 20       		.byte	32
 1213 04a8 02       		.byte	2
 1214 04a9 20       		.byte	32
 1215 04aa 02       		.byte	2
 1216 04ab 20       		.byte	32
 1217 04ac 04       		.byte	4
 1218 04ad 20       		.byte	32
 1219 04ae 02       		.byte	2
 1220 04af 20       		.byte	32
 1221 04b0 FF       		.byte	-1
 1222 04b1 FF       		.byte	-1
 1223 04b2 20       		.byte	32
 1224 04b3 20       		.byte	32
 1225 04b4 FF       		.byte	-1
 1226 04b5 FF       		.byte	-1
 1227 04b6 20       		.byte	32
 1228 04b7 20       		.byte	32
 1229 04b8 02       		.byte	2
 1230 04b9 20       		.byte	32
 1231 04ba 02       		.byte	2
 1232 04bb 20       		.byte	32
 1233 04bc 01       		.byte	1
 1234 04bd 20       		.byte	32
 1235 04be 20       		.byte	32
 1236 04bf 20       		.byte	32
 1237 04c0 FE       		.byte	-2
 1238 04c1 FF       		.byte	-1
 1239 04c2 01       		.byte	1
 1240 04c3 20       		.byte	32
 1241 04c4 02       		.byte	2
 1242 04c5 20       		.byte	32
 1243 04c6 01       		.byte	1
 1244 04c7 20       		.byte	32
 1245 04c8 01       		.byte	1
 1246 04c9 20       		.byte	32
 1247 04ca 20       		.byte	32
 1248 04cb 20       		.byte	32
 1249 04cc FF       		.byte	-1
 1250 04cd FF       		.byte	-1
 1251 04ce 20       		.byte	32
 1252 04cf 20       		.byte	32
 1253 04d0 01       		.byte	1
 1254 04d1 20       		.byte	32
ARM GAS  C:\Users\embedded\AppData\Local\Temp\ccsTD7zZ.s 			page 23


 1255 04d2 01       		.byte	1
 1256 04d3 20       		.byte	32
 1257 04d4 02       		.byte	2
 1258 04d5 20       		.byte	32
 1259 04d6 20       		.byte	32
 1260 04d7 20       		.byte	32
 1261 04d8 20       		.byte	32
 1262 04d9 20       		.byte	32
 1263 04da 02       		.byte	2
 1264 04db 20       		.byte	32
 1265 04dc 04       		.byte	4
 1266 04dd 20       		.byte	32
 1267 04de 01       		.byte	1
 1268 04df 20       		.byte	32
 1269 04e0 20       		.byte	32
 1270 04e1 20       		.byte	32
 1271 04e2 20       		.byte	32
 1272 04e3 20       		.byte	32
 1273 04e4 01       		.byte	1
 1274 04e5 20       		.byte	32
 1275 04e6 03       		.byte	3
 1276 04e7 20       		.byte	32
 1277 04e8 02       		.byte	2
 1278 04e9 20       		.byte	32
 1279 04ea 01       		.byte	1
 1280 04eb 20       		.byte	32
 1281 04ec 02       		.byte	2
 1282 04ed 20       		.byte	32
 1283 04ee 02       		.byte	2
 1284 04ef 20       		.byte	32
 1285 04f0 20       		.byte	32
 1286 04f1 20       		.byte	32
 1287 04f2 20       		.byte	32
 1288 04f3 20       		.byte	32
 1289 04f4 20       		.byte	32
 1290 04f5 20       		.byte	32
 1291 04f6 01       		.byte	1
 1292 04f7 20       		.byte	32
 1293 04f8 20       		.byte	32
 1294 04f9 20       		.byte	32
 1295 04fa FD       		.byte	-3
 1296 04fb FF       		.byte	-1
 1297 04fc 20       		.byte	32
 1298 04fd 20       		.byte	32
 1299 04fe 04       		.byte	4
 1300 04ff 20       		.byte	32
 1301 0500 04       		.byte	4
 1302 0501 20       		.byte	32
 1303 0502 04       		.byte	4
 1304 0503 20       		.byte	32
 1305 0504 04       		.byte	4
 1306 0505 20       		.byte	32
 1307 0506 03       		.byte	3
 1308 0507 20       		.byte	32
 1309 0508 02       		.byte	2
 1310 0509 20       		.byte	32
 1311 050a 20       		.byte	32
ARM GAS  C:\Users\embedded\AppData\Local\Temp\ccsTD7zZ.s 			page 24


 1312 050b 20       		.byte	32
 1313 050c FF       		.byte	-1
 1314 050d FF       		.byte	-1
 1315 050e 02       		.byte	2
 1316 050f 20       		.byte	32
 1317 0510 01       		.byte	1
 1318 0511 20       		.byte	32
 1319 0512 FF       		.byte	-1
 1320 0513 FF       		.byte	-1
 1321 0514 01       		.byte	1
 1322 0515 20       		.byte	32
 1323 0516 03       		.byte	3
 1324 0517 20       		.byte	32
 1325 0518 01       		.byte	1
 1326 0519 20       		.byte	32
 1327 051a 01       		.byte	1
 1328 051b 20       		.byte	32
 1329 051c 01       		.byte	1
 1330 051d 20       		.byte	32
 1331 051e FE       		.byte	-2
 1332 051f FF       		.byte	-1
 1333 0520 FB       		.byte	-5
 1334 0521 FF       		.byte	-1
 1335 0522 FD       		.byte	-3
 1336 0523 FF       		.byte	-1
 1337 0524 01       		.byte	1
 1338 0525 20       		.byte	32
 1339 0526 20       		.byte	32
 1340 0527 20       		.byte	32
 1341 0528 20       		.byte	32
 1342 0529 20       		.byte	32
 1343 052a 20       		.byte	32
 1344 052b 20       		.byte	32
 1345 052c 02       		.byte	2
 1346 052d 20       		.byte	32
 1347 052e 03       		.byte	3
 1348 052f 20       		.byte	32
 1349 0530 20       		.byte	32
 1350 0531 20       		.byte	32
 1351 0532 FF       		.byte	-1
 1352 0533 FF       		.byte	-1
 1353 0534 FF       		.byte	-1
 1354 0535 FF       		.byte	-1
 1355 0536 FE       		.byte	-2
 1356 0537 FF       		.byte	-1
 1357 0538 FB       		.byte	-5
 1358 0539 FF       		.byte	-1
 1359 053a FD       		.byte	-3
 1360 053b FF       		.byte	-1
 1361 053c 20       		.byte	32
 1362 053d 20       		.byte	32
 1363 053e 20       		.byte	32
 1364 053f 20       		.byte	32
 1365 0540 01       		.byte	1
 1366 0541 20       		.byte	32
 1367 0542 01       		.byte	1
 1368 0543 20       		.byte	32
ARM GAS  C:\Users\embedded\AppData\Local\Temp\ccsTD7zZ.s 			page 25


 1369 0544 02       		.byte	2
 1370 0545 20       		.byte	32
 1371 0546 06       		.byte	6
 1372 0547 20       		.byte	32
 1373 0548 06       		.byte	6
 1374 0549 20       		.byte	32
 1375 054a 02       		.byte	2
 1376 054b 20       		.byte	32
 1377 054c 20       		.byte	32
 1378 054d 20       		.byte	32
 1379 054e FF       		.byte	-1
 1380 054f FF       		.byte	-1
 1381 0550 FF       		.byte	-1
 1382 0551 FF       		.byte	-1
 1383 0552 FF       		.byte	-1
 1384 0553 FF       		.byte	-1
 1385 0554 FE       		.byte	-2
 1386 0555 FF       		.byte	-1
 1387 0556 FE       		.byte	-2
 1388 0557 FF       		.byte	-1
 1389 0558 20       		.byte	32
 1390 0559 20       		.byte	32
 1391 055a FF       		.byte	-1
 1392 055b FF       		.byte	-1
 1393 055c FF       		.byte	-1
 1394 055d FF       		.byte	-1
 1395 055e 20       		.byte	32
 1396 055f 20       		.byte	32
 1397 0560 02       		.byte	2
 1398 0561 20       		.byte	32
 1399 0562 02       		.byte	2
 1400 0563 20       		.byte	32
 1401 0564 FF       		.byte	-1
 1402 0565 FF       		.byte	-1
 1403 0566 20       		.byte	32
 1404 0567 20       		.byte	32
 1405 0568 20       		.byte	32
 1406 0569 20       		.byte	32
 1407 056a FC       		.byte	-4
 1408 056b FF       		.byte	-1
 1409 056c FD       		.byte	-3
 1410 056d FF       		.byte	-1
 1411 056e 20       		.byte	32
 1412 056f 20       		.byte	32
 1413 0570 20       		.byte	32
 1414 0571 20       		.byte	32
 1415 0572 01       		.byte	1
 1416 0573 20       		.byte	32
 1417 0574 20       		.byte	32
 1418 0575 20       		.byte	32
 1419 0576 FF       		.byte	-1
 1420 0577 FF       		.byte	-1
 1421 0578 03       		.byte	3
 1422 0579 20       		.byte	32
 1423 057a 02       		.byte	2
 1424 057b 20       		.byte	32
 1425 057c 01       		.byte	1
ARM GAS  C:\Users\embedded\AppData\Local\Temp\ccsTD7zZ.s 			page 26


 1426 057d 20       		.byte	32
 1427 057e 04       		.byte	4
 1428 057f 20       		.byte	32
 1429 0580 03       		.byte	3
 1430 0581 20       		.byte	32
 1431 0582 20       		.byte	32
 1432 0583 20       		.byte	32
 1433 0584 20       		.byte	32
 1434 0585 20       		.byte	32
 1435 0586 02       		.byte	2
 1436 0587 20       		.byte	32
 1437 0588 01       		.byte	1
 1438 0589 20       		.byte	32
 1439 058a FF       		.byte	-1
 1440 058b FF       		.byte	-1
 1441 058c FF       		.byte	-1
 1442 058d FF       		.byte	-1
 1443 058e 01       		.byte	1
 1444 058f 20       		.byte	32
 1445 0590 01       		.byte	1
 1446 0591 20       		.byte	32
 1447 0592 20       		.byte	32
 1448 0593 20       		.byte	32
 1449 0594 FE       		.byte	-2
 1450 0595 FF       		.byte	-1
 1451 0596 20       		.byte	32
 1452 0597 20       		.byte	32
 1453 0598 03       		.byte	3
 1454 0599 20       		.byte	32
 1455 059a 02       		.byte	2
 1456 059b 20       		.byte	32
 1457 059c FF       		.byte	-1
 1458 059d FF       		.byte	-1
 1459 059e 01       		.byte	1
 1460 059f 20       		.byte	32
 1461 05a0 FF       		.byte	-1
 1462 05a1 FF       		.byte	-1
 1463 05a2 FE       		.byte	-2
 1464 05a3 FF       		.byte	-1
 1465 05a4 FF       		.byte	-1
 1466 05a5 FF       		.byte	-1
 1467 05a6 20       		.byte	32
 1468 05a7 20       		.byte	32
 1469 05a8 20       		.byte	32
 1470 05a9 20       		.byte	32
 1471 05aa FE       		.byte	-2
 1472 05ab FF       		.byte	-1
 1473 05ac FB       		.byte	-5
 1474 05ad FF       		.byte	-1
 1475 05ae FC       		.byte	-4
 1476 05af FF       		.byte	-1
 1477 05b0 FD       		.byte	-3
 1478 05b1 FF       		.byte	-1
 1479 05b2 FF       		.byte	-1
 1480 05b3 FF       		.byte	-1
 1481 05b4 01       		.byte	1
 1482 05b5 20       		.byte	32
ARM GAS  C:\Users\embedded\AppData\Local\Temp\ccsTD7zZ.s 			page 27


 1483 05b6 01       		.byte	1
 1484 05b7 20       		.byte	32
 1485 05b8 20       		.byte	32
 1486 05b9 20       		.byte	32
 1487 05ba 20       		.byte	32
 1488 05bb 20       		.byte	32
 1489 05bc 20       		.byte	32
 1490 05bd 20       		.byte	32
 1491 05be 20       		.byte	32
 1492 05bf 20       		.byte	32
 1493 05c0 20       		.byte	32
 1494 05c1 20       		.byte	32
 1495 05c2 01       		.byte	1
 1496 05c3 20       		.byte	32
 1497 05c4 01       		.byte	1
 1498 05c5 20       		.byte	32
 1499 05c6 20       		.byte	32
 1500 05c7 20       		.byte	32
 1501 05c8 FF       		.byte	-1
 1502 05c9 FF       		.byte	-1
 1503 05ca FF       		.byte	-1
 1504 05cb FF       		.byte	-1
 1505 05cc FF       		.byte	-1
 1506 05cd FF       		.byte	-1
 1507 05ce FF       		.byte	-1
 1508 05cf FF       		.byte	-1
 1509 05d0 02       		.byte	2
 1510 05d1 20       		.byte	32
 1511 05d2 02       		.byte	2
 1512 05d3 20       		.byte	32
 1513 05d4 02       		.byte	2
 1514 05d5 20       		.byte	32
 1515 05d6 04       		.byte	4
 1516 05d7 20       		.byte	32
 1517 05d8 02       		.byte	2
 1518 05d9 20       		.byte	32
 1519 05da FF       		.byte	-1
 1520 05db FF       		.byte	-1
 1521 05dc FF       		.byte	-1
 1522 05dd FF       		.byte	-1
 1523 05de FE       		.byte	-2
 1524 05df FF       		.byte	-1
 1525 05e0 FD       		.byte	-3
 1526 05e1 FF       		.byte	-1
 1527 05e2 FE       		.byte	-2
 1528 05e3 FF       		.byte	-1
 1529 05e4 FD       		.byte	-3
 1530 05e5 FF       		.byte	-1
 1531 05e6 FD       		.byte	-3
 1532 05e7 FF       		.byte	-1
 1533 05e8 FF       		.byte	-1
 1534 05e9 FF       		.byte	-1
 1535 05ea FD       		.byte	-3
 1536 05eb FF       		.byte	-1
 1537 05ec FC       		.byte	-4
 1538 05ed FF       		.byte	-1
 1539 05ee FD       		.byte	-3
ARM GAS  C:\Users\embedded\AppData\Local\Temp\ccsTD7zZ.s 			page 28


 1540 05ef FF       		.byte	-1
 1541 05f0 FF       		.byte	-1
 1542 05f1 FF       		.byte	-1
 1543 05f2 FF       		.byte	-1
 1544 05f3 FF       		.byte	-1
 1545 05f4 FF       		.byte	-1
 1546 05f5 FF       		.byte	-1
 1547 05f6 FE       		.byte	-2
 1548 05f7 FF       		.byte	-1
 1549 05f8 FD       		.byte	-3
 1550 05f9 FF       		.byte	-1
 1551 05fa FE       		.byte	-2
 1552 05fb FF       		.byte	-1
 1553 05fc 20       		.byte	32
 1554 05fd 20       		.byte	32
 1555 05fe FE       		.byte	-2
 1556 05ff FF       		.byte	-1
 1557 0600 FB       		.byte	-5
 1558 0601 FF       		.byte	-1
 1559 0602 FE       		.byte	-2
 1560 0603 FF       		.byte	-1
 1561 0604 FE       		.byte	-2
 1562 0605 FF       		.byte	-1
 1563 0606 FD       		.byte	-3
 1564 0607 FF       		.byte	-1
 1565 0608 FD       		.byte	-3
 1566 0609 FF       		.byte	-1
 1567 060a FF       		.byte	-1
 1568 060b FF       		.byte	-1
 1569 060c FE       		.byte	-2
 1570 060d FF       		.byte	-1
 1571 060e FE       		.byte	-2
 1572 060f FF       		.byte	-1
 1573 0610 20       		.byte	32
 1574 0611 20       		.byte	32
 1575 0612 02       		.byte	2
 1576 0613 20       		.byte	32
 1577 0614 02       		.byte	2
 1578 0615 20       		.byte	32
 1579 0616 20       		.byte	32
 1580 0617 20       		.byte	32
 1581 0618 20       		.byte	32
 1582 0619 20       		.byte	32
 1583 061a 01       		.byte	1
 1584 061b 20       		.byte	32
 1585 061c 02       		.byte	2
 1586 061d 20       		.byte	32
 1587 061e 02       		.byte	2
 1588 061f 20       		.byte	32
 1589 0620 20       		.byte	32
 1590 0621 20       		.byte	32
 1591 0622 20       		.byte	32
 1592 0623 20       		.byte	32
 1593 0624 02       		.byte	2
 1594 0625 20       		.byte	32
 1595 0626 01       		.byte	1
 1596 0627 20       		.byte	32
ARM GAS  C:\Users\embedded\AppData\Local\Temp\ccsTD7zZ.s 			page 29


 1597 0628 20       		.byte	32
 1598 0629 20       		.byte	32
 1599 062a FF       		.byte	-1
 1600 062b FF       		.byte	-1
 1601 062c FE       		.byte	-2
 1602 062d FF       		.byte	-1
 1603 062e FF       		.byte	-1
 1604 062f FF       		.byte	-1
 1605 0630 FF       		.byte	-1
 1606 0631 FF       		.byte	-1
 1607 0632 FF       		.byte	-1
 1608 0633 FF       		.byte	-1
 1609 0634 20       		.byte	32
 1610 0635 20       		.byte	32
 1611 0636 FE       		.byte	-2
 1612 0637 FF       		.byte	-1
 1613 0638 FD       		.byte	-3
 1614 0639 FF       		.byte	-1
 1615 063a FF       		.byte	-1
 1616 063b FF       		.byte	-1
 1617 063c FE       		.byte	-2
 1618 063d FF       		.byte	-1
 1619 063e FD       		.byte	-3
 1620 063f FF       		.byte	-1
 1621 0640 FE       		.byte	-2
 1622 0641 FF       		.byte	-1
 1623 0642 FF       		.byte	-1
 1624 0643 FF       		.byte	-1
 1625 0644 01       		.byte	1
 1626 0645 20       		.byte	32
 1627 0646 02       		.byte	2
 1628 0647 20       		.byte	32
 1629 0648 20       		.byte	32
 1630 0649 20       		.byte	32
 1631 064a 20       		.byte	32
 1632 064b 20       		.byte	32
 1633 064c 02       		.byte	2
 1634 064d 20       		.byte	32
 1635 064e 20       		.byte	32
 1636 064f 20       		.byte	32
 1637 0650 FE       		.byte	-2
 1638 0651 FF       		.byte	-1
 1639 0652 FE       		.byte	-2
 1640 0653 FF       		.byte	-1
 1641 0654 FF       		.byte	-1
 1642 0655 FF       		.byte	-1
 1643 0656 20       		.byte	32
 1644 0657 20       		.byte	32
 1645 0658 FE       		.byte	-2
 1646 0659 FF       		.byte	-1
 1647 065a FE       		.byte	-2
 1648 065b FF       		.byte	-1
 1649 065c FF       		.byte	-1
 1650 065d FF       		.byte	-1
 1651 065e 20       		.byte	32
 1652 065f 20       		.byte	32
 1653 0660 20       		.byte	32
ARM GAS  C:\Users\embedded\AppData\Local\Temp\ccsTD7zZ.s 			page 30


 1654 0661 20       		.byte	32
 1655 0662 FF       		.byte	-1
 1656 0663 FF       		.byte	-1
 1657 0664 FF       		.byte	-1
 1658 0665 FF       		.byte	-1
 1659 0666 01       		.byte	1
 1660 0667 20       		.byte	32
 1661 0668 01       		.byte	1
 1662 0669 20       		.byte	32
 1663 066a 20       		.byte	32
 1664 066b 20       		.byte	32
 1665 066c 01       		.byte	1
 1666 066d 20       		.byte	32
 1667 066e 02       		.byte	2
 1668 066f 20       		.byte	32
 1669 0670 02       		.byte	2
 1670 0671 20       		.byte	32
 1671 0672 20       		.byte	32
 1672 0673 20       		.byte	32
 1673 0674 FF       		.byte	-1
 1674 0675 FF       		.byte	-1
 1675 0676 FF       		.byte	-1
 1676 0677 FF       		.byte	-1
 1677 0678 FE       		.byte	-2
 1678 0679 FF       		.byte	-1
 1679 067a FE       		.byte	-2
 1680 067b FF       		.byte	-1
 1681 067c FF       		.byte	-1
 1682 067d FF       		.byte	-1
 1683 067e FF       		.byte	-1
 1684 067f FF       		.byte	-1
 1685 0680 FF       		.byte	-1
 1686 0681 FF       		.byte	-1
 1687 0682 20       		.byte	32
 1688 0683 20       		.byte	32
 1689 0684 FD       		.byte	-3
 1690 0685 FF       		.byte	-1
 1691 0686 FE       		.byte	-2
 1692 0687 FF       		.byte	-1
 1693 0688 01       		.byte	1
 1694 0689 20       		.byte	32
 1695 068a 02       		.byte	2
 1696 068b 20       		.byte	32
 1697 068c 01       		.byte	1
 1698 068d 20       		.byte	32
 1699 068e 20       		.byte	32
 1700 068f 20       		.byte	32
 1701 0690 FF       		.byte	-1
 1702 0691 FF       		.byte	-1
 1703 0692 FF       		.byte	-1
 1704 0693 FF       		.byte	-1
 1705 0694 FF       		.byte	-1
 1706 0695 FF       		.byte	-1
 1707 0696 FD       		.byte	-3
 1708 0697 FF       		.byte	-1
 1709 0698 FC       		.byte	-4
 1710 0699 FF       		.byte	-1
ARM GAS  C:\Users\embedded\AppData\Local\Temp\ccsTD7zZ.s 			page 31


 1711 069a FE       		.byte	-2
 1712 069b FF       		.byte	-1
 1713 069c FF       		.byte	-1
 1714 069d FF       		.byte	-1
 1715 069e 20       		.byte	32
 1716 069f 20       		.byte	32
 1717 06a0 FF       		.byte	-1
 1718 06a1 FF       		.byte	-1
 1719 06a2 FE       		.byte	-2
 1720 06a3 FF       		.byte	-1
 1721 06a4 FF       		.byte	-1
 1722 06a5 FF       		.byte	-1
 1723 06a6 20       		.byte	32
 1724 06a7 20       		.byte	32
 1725 06a8 01       		.byte	1
 1726 06a9 20       		.byte	32
 1727 06aa 01       		.byte	1
 1728 06ab 20       		.byte	32
 1729 06ac 01       		.byte	1
 1730 06ad 20       		.byte	32
 1731 06ae 01       		.byte	1
 1732 06af 20       		.byte	32
 1733 06b0 FF       		.byte	-1
 1734 06b1 FF       		.byte	-1
 1735 06b2 FF       		.byte	-1
 1736 06b3 FF       		.byte	-1
 1737 06b4 20       		.byte	32
 1738 06b5 20       		.byte	32
 1739 06b6 03       		.byte	3
 1740 06b7 20       		.byte	32
 1741 06b8 03       		.byte	3
 1742 06b9 20       		.byte	32
 1743 06ba 02       		.byte	2
 1744 06bb 20       		.byte	32
 1745 06bc FF       		.byte	-1
 1746 06bd FF       		.byte	-1
 1747 06be FE       		.byte	-2
 1748 06bf FF       		.byte	-1
 1749 06c0 20       		.byte	32
 1750 06c1 20       		.byte	32
 1751 06c2 20       		.byte	32
 1752 06c3 20       		.byte	32
 1753 06c4 FE       		.byte	-2
 1754 06c5 FF       		.byte	-1
 1755 06c6 FE       		.byte	-2
 1756 06c7 FF       		.byte	-1
 1757 06c8 FF       		.byte	-1
 1758 06c9 FF       		.byte	-1
 1759 06ca FD       		.byte	-3
 1760 06cb FF       		.byte	-1
 1761 06cc FD       		.byte	-3
 1762 06cd FF       		.byte	-1
 1763 06ce FF       		.byte	-1
 1764 06cf FF       		.byte	-1
 1765 06d0 FF       		.byte	-1
 1766 06d1 FF       		.byte	-1
 1767 06d2 FF       		.byte	-1
ARM GAS  C:\Users\embedded\AppData\Local\Temp\ccsTD7zZ.s 			page 32


 1768 06d3 FF       		.byte	-1
 1769 06d4 FE       		.byte	-2
 1770 06d5 FF       		.byte	-1
 1771 06d6 FE       		.byte	-2
 1772 06d7 FF       		.byte	-1
 1773 06d8 FE       		.byte	-2
 1774 06d9 FF       		.byte	-1
 1775 06da 20       		.byte	32
 1776 06db 20       		.byte	32
 1777 06dc 20       		.byte	32
 1778 06dd 20       		.byte	32
 1779 06de FF       		.byte	-1
 1780 06df FF       		.byte	-1
 1781 06e0 02       		.byte	2
 1782 06e1 20       		.byte	32
 1783 06e2 04       		.byte	4
 1784 06e3 20       		.byte	32
 1785 06e4 01       		.byte	1
 1786 06e5 20       		.byte	32
 1787 06e6 20       		.byte	32
 1788 06e7 20       		.byte	32
 1789 06e8 01       		.byte	1
 1790 06e9 20       		.byte	32
 1791 06ea 20       		.byte	32
 1792 06eb 20       		.byte	32
 1793 06ec 02       		.byte	2
 1794 06ed 20       		.byte	32
 1795 06ee 01       		.byte	1
 1796 06ef 20       		.byte	32
 1797 06f0 20       		.byte	32
 1798 06f1 20       		.byte	32
 1799 06f2 02       		.byte	2
 1800 06f3 20       		.byte	32
 1801 06f4 20       		.byte	32
 1802 06f5 20       		.byte	32
 1803 06f6 FF       		.byte	-1
 1804 06f7 FF       		.byte	-1
 1805 06f8 02       		.byte	2
 1806 06f9 20       		.byte	32
 1807 06fa 20       		.byte	32
 1808 06fb 20       		.byte	32
 1809 06fc FF       		.byte	-1
 1810 06fd FF       		.byte	-1
 1811 06fe 02       		.byte	2
 1812 06ff 20       		.byte	32
 1813 0700 FF       		.byte	-1
 1814 0701 FF       		.byte	-1
 1815 0702 FE       		.byte	-2
 1816 0703 FF       		.byte	-1
 1817 0704 20       		.byte	32
 1818 0705 20       		.byte	32
 1819 0706 01       		.byte	1
 1820 0707 20       		.byte	32
 1821 0708 02       		.byte	2
 1822 0709 20       		.byte	32
 1823 070a 01       		.byte	1
 1824 070b 20       		.byte	32
ARM GAS  C:\Users\embedded\AppData\Local\Temp\ccsTD7zZ.s 			page 33


 1825 070c 20       		.byte	32
 1826 070d 20       		.byte	32
 1827 070e 02       		.byte	2
 1828 070f 20       		.byte	32
 1829 0710 03       		.byte	3
 1830 0711 20       		.byte	32
 1831 0712 02       		.byte	2
 1832 0713 20       		.byte	32
 1833 0714 FF       		.byte	-1
 1834 0715 FF       		.byte	-1
 1835 0716 FD       		.byte	-3
 1836 0717 FF       		.byte	-1
 1837 0718 20       		.byte	32
 1838 0719 20       		.byte	32
 1839 071a 01       		.byte	1
 1840 071b 20       		.byte	32
 1841 071c FE       		.byte	-2
 1842 071d FF       		.byte	-1
 1843 071e FF       		.byte	-1
 1844 071f FF       		.byte	-1
 1845 0720 FE       		.byte	-2
 1846 0721 FF       		.byte	-1
 1847 0722 FE       		.byte	-2
 1848 0723 FF       		.byte	-1
 1849 0724 FE       		.byte	-2
 1850 0725 FF       		.byte	-1
 1851 0726 FE       		.byte	-2
 1852 0727 FF       		.byte	-1
 1853 0728 FE       		.byte	-2
 1854 0729 FF       		.byte	-1
 1855 072a 01       		.byte	1
 1856 072b 20       		.byte	32
 1857 072c 02       		.byte	2
 1858 072d 20       		.byte	32
 1859 072e 04       		.byte	4
 1860 072f 20       		.byte	32
 1861 0730 04       		.byte	4
 1862 0731 20       		.byte	32
 1863 0732 04       		.byte	4
 1864 0733 20       		.byte	32
 1865 0734 04       		.byte	4
 1866 0735 20       		.byte	32
 1867 0736 02       		.byte	2
 1868 0737 20       		.byte	32
 1869 0738 02       		.byte	2
 1870 0739 20       		.byte	32
 1871 073a 05       		.byte	5
 1872 073b 20       		.byte	32
 1873 073c 04       		.byte	4
 1874 073d 20       		.byte	32
 1875 073e 02       		.byte	2
 1876 073f 20       		.byte	32
 1877 0740 02       		.byte	2
 1878 0741 20       		.byte	32
 1879 0742 20       		.byte	32
 1880 0743 20       		.byte	32
 1881 0744 20       		.byte	32
ARM GAS  C:\Users\embedded\AppData\Local\Temp\ccsTD7zZ.s 			page 34


 1882 0745 20       		.byte	32
 1883 0746 FF       		.byte	-1
 1884 0747 FF       		.byte	-1
 1885 0748 FE       		.byte	-2
 1886 0749 FF       		.byte	-1
 1887 074a 01       		.byte	1
 1888 074b 20       		.byte	32
 1889 074c 01       		.byte	1
 1890 074d 20       		.byte	32
 1891 074e FE       		.byte	-2
 1892 074f FF       		.byte	-1
 1893 0750 FD       		.byte	-3
 1894 0751 FF       		.byte	-1
 1895 0752 FF       		.byte	-1
 1896 0753 FF       		.byte	-1
 1897 0754 01       		.byte	1
 1898 0755 20       		.byte	32
 1899 0756 01       		.byte	1
 1900 0757 20       		.byte	32
 1901 0758 FF       		.byte	-1
 1902 0759 FF       		.byte	-1
 1903 075a FF       		.byte	-1
 1904 075b FF       		.byte	-1
 1905 075c FF       		.byte	-1
 1906 075d FF       		.byte	-1
 1907 075e 20       		.byte	32
 1908 075f 20       		.byte	32
 1909 0760 01       		.byte	1
 1910 0761 20       		.byte	32
 1911 0762 20       		.byte	32
 1912 0763 20       		.byte	32
 1913 0764 20       		.byte	32
 1914 0765 20       		.byte	32
 1915 0766 01       		.byte	1
 1916 0767 20       		.byte	32
 1917 0768 02       		.byte	2
 1918 0769 20       		.byte	32
 1919 076a 01       		.byte	1
 1920 076b 20       		.byte	32
 1921 076c FE       		.byte	-2
 1922 076d FF       		.byte	-1
 1923 076e FD       		.byte	-3
 1924 076f FF       		.byte	-1
 1925 0770 01       		.byte	1
 1926 0771 20       		.byte	32
 1927 0772 01       		.byte	1
 1928 0773 20       		.byte	32
 1929 0774 FF       		.byte	-1
 1930 0775 FF       		.byte	-1
 1931 0776 FE       		.byte	-2
 1932 0777 FF       		.byte	-1
 1933 0778 FD       		.byte	-3
 1934 0779 FF       		.byte	-1
 1935 077a FF       		.byte	-1
 1936 077b FF       		.byte	-1
 1937 077c 01       		.byte	1
 1938 077d 20       		.byte	32
ARM GAS  C:\Users\embedded\AppData\Local\Temp\ccsTD7zZ.s 			page 35


 1939 077e FE       		.byte	-2
 1940 077f FF       		.byte	-1
 1941 0780 FD       		.byte	-3
 1942 0781 FF       		.byte	-1
 1943 0782 FD       		.byte	-3
 1944 0783 FF       		.byte	-1
 1945 0784 FC       		.byte	-4
 1946 0785 FF       		.byte	-1
 1947 0786 20       		.byte	32
 1948 0787 20       		.byte	32
 1949 0788 04       		.byte	4
 1950 0789 20       		.byte	32
 1951 078a 02       		.byte	2
 1952 078b 20       		.byte	32
 1953 078c 20       		.byte	32
 1954 078d 20       		.byte	32
 1955 078e 02       		.byte	2
 1956 078f 20       		.byte	32
 1957 0790 03       		.byte	3
 1958 0791 20       		.byte	32
 1959 0792 02       		.byte	2
 1960 0793 20       		.byte	32
 1961 0794 20       		.byte	32
 1962 0795 20       		.byte	32
 1963 0796 20       		.byte	32
 1964 0797 20       		.byte	32
 1965 0798 FF       		.byte	-1
 1966 0799 FF       		.byte	-1
 1967 079a 01       		.byte	1
 1968 079b 20       		.byte	32
 1969 079c 03       		.byte	3
 1970 079d 20       		.byte	32
 1971 079e FF       		.byte	-1
 1972 079f FF       		.byte	-1
 1973 07a0 FE       		.byte	-2
 1974 07a1 FF       		.byte	-1
 1975 07a2 01       		.byte	1
 1976 07a3 20       		.byte	32
 1977 07a4 03       		.byte	3
 1978 07a5 20       		.byte	32
 1979 07a6 03       		.byte	3
 1980 07a7 20       		.byte	32
 1981 07a8 02       		.byte	2
 1982 07a9 20       		.byte	32
 1983 07aa 02       		.byte	2
 1984 07ab 20       		.byte	32
 1985 07ac 02       		.byte	2
 1986 07ad 20       		.byte	32
 1987 07ae 02       		.byte	2
 1988 07af 20       		.byte	32
 1989 07b0 01       		.byte	1
 1990 07b1 20       		.byte	32
 1991 07b2 20       		.byte	32
 1992 07b3 20       		.byte	32
 1993 07b4 20       		.byte	32
 1994 07b5 20       		.byte	32
 1995 07b6 01       		.byte	1
ARM GAS  C:\Users\embedded\AppData\Local\Temp\ccsTD7zZ.s 			page 36


 1996 07b7 20       		.byte	32
 1997 07b8 03       		.byte	3
 1998 07b9 20       		.byte	32
 1999 07ba 20       		.byte	32
 2000 07bb 20       		.byte	32
 2001 07bc FD       		.byte	-3
 2002 07bd FF       		.byte	-1
 2003 07be FC       		.byte	-4
 2004 07bf FF       		.byte	-1
 2005 07c0 FD       		.byte	-3
 2006 07c1 FF       		.byte	-1
 2007 07c2 FD       		.byte	-3
 2008 07c3 FF       		.byte	-1
 2009 07c4 FC       		.byte	-4
 2010 07c5 FF       		.byte	-1
 2011 07c6 FC       		.byte	-4
 2012 07c7 FF       		.byte	-1
 2013 07c8 FD       		.byte	-3
 2014 07c9 FF       		.byte	-1
 2015 07ca FE       		.byte	-2
 2016 07cb FF       		.byte	-1
 2017 07cc FF       		.byte	-1
 2018 07cd FF       		.byte	-1
 2019 07ce FE       		.byte	-2
 2020 07cf FF       		.byte	-1
 2021 07d0 FD       		.byte	-3
 2022 07d1 FF       		.byte	-1
 2023 07d2 20       		.byte	32
 2024 07d3 20       		.byte	32
 2025 07d4 20       		.byte	32
 2026 07d5 20       		.byte	32
 2027 07d6 FF       		.byte	-1
 2028 07d7 FF       		.byte	-1
 2029 07d8 FE       		.byte	-2
 2030 07d9 FF       		.byte	-1
 2031 07da FE       		.byte	-2
 2032 07db FF       		.byte	-1
 2033 07dc 20       		.byte	32
 2034 07dd 20       		.byte	32
 2035 07de 03       		.byte	3
 2036 07df 20       		.byte	32
 2037 07e0 03       		.byte	3
 2038 07e1 20       		.byte	32
 2039 07e2 20       		.byte	32
 2040 07e3 20       		.byte	32
 2041 07e4 FE       		.byte	-2
 2042 07e5 FF       		.byte	-1
 2043 07e6 01       		.byte	1
 2044 07e7 20       		.byte	32
 2045 07e8 02       		.byte	2
 2046 07e9 20       		.byte	32
 2047 07ea 20       		.byte	32
 2048 07eb 20       		.byte	32
 2049 07ec 02       		.byte	2
 2050 07ed 20       		.byte	32
 2051 07ee 03       		.byte	3
 2052 07ef 20       		.byte	32
ARM GAS  C:\Users\embedded\AppData\Local\Temp\ccsTD7zZ.s 			page 37


 2053 07f0 03       		.byte	3
 2054 07f1 20       		.byte	32
 2055 07f2 02       		.byte	2
 2056 07f3 20       		.byte	32
 2057 07f4 FF       		.byte	-1
 2058 07f5 FF       		.byte	-1
 2059 07f6 FE       		.byte	-2
 2060 07f7 FF       		.byte	-1
 2061 07f8 FD       		.byte	-3
 2062 07f9 FF       		.byte	-1
 2063 07fa FC       		.byte	-4
 2064 07fb FF       		.byte	-1
 2065 07fc FE       		.byte	-2
 2066 07fd FF       		.byte	-1
 2067 07fe FD       		.byte	-3
 2068 07ff FF       		.byte	-1
 2069 0800 FC       		.byte	-4
 2070 0801 FF       		.byte	-1
 2071 0802 FF       		.byte	-1
 2072 0803 FF       		.byte	-1
 2073 0804 20       		.byte	32
 2074 0805 20       		.byte	32
 2075 0806 FF       		.byte	-1
 2076 0807 FF       		.byte	-1
 2077 0808 20       		.byte	32
 2078 0809 20       		.byte	32
 2079 080a FE       		.byte	-2
 2080 080b FF       		.byte	-1
 2081 080c FF       		.byte	-1
 2082 080d FF       		.byte	-1
 2083 080e FF       		.byte	-1
 2084 080f FF       		.byte	-1
 2085 0810 FF       		.byte	-1
 2086 0811 FF       		.byte	-1
 2087 0812 20       		.byte	32
 2088 0813 20       		.byte	32
 2089 0814 FE       		.byte	-2
 2090 0815 FF       		.byte	-1
 2091 0816 02       		.byte	2
 2092 0817 20       		.byte	32
 2093 0818 FC       		.byte	-4
 2094 0819 FF       		.byte	-1
 2095 081a FE       		.byte	-2
 2096 081b FF       		.byte	-1
 2097 081c 20       		.byte	32
 2098 081d 20       		.byte	32
 2099 081e FD       		.byte	-3
 2100 081f FF       		.byte	-1
 2101 0820 02       		.byte	2
 2102 0821 20       		.byte	32
 2103 0822 FE       		.byte	-2
 2104 0823 FF       		.byte	-1
 2105 0824 20       		.byte	32
 2106 0825 20       		.byte	32
 2107 0826 FE       		.byte	-2
 2108 0827 FF       		.byte	-1
 2109 0828 FF       		.byte	-1
ARM GAS  C:\Users\embedded\AppData\Local\Temp\ccsTD7zZ.s 			page 38


 2110 0829 FF       		.byte	-1
 2111 082a FE       		.byte	-2
 2112 082b FF       		.byte	-1
 2113 082c 20       		.byte	32
 2114 082d 20       		.byte	32
 2115 082e 06       		.byte	6
 2116 082f 20       		.byte	32
 2117 0830 20       		.byte	32
 2118 0831 20       		.byte	32
 2119 0832 01       		.byte	1
 2120 0833 20       		.byte	32
 2121 0834 20       		.byte	32
 2122 0835 20       		.byte	32
 2123 0836 FF       		.byte	-1
 2124 0837 FF       		.byte	-1
 2125 0838 FF       		.byte	-1
 2126 0839 FF       		.byte	-1
 2127 083a FF       		.byte	-1
 2128 083b FF       		.byte	-1
 2129 083c 20       		.byte	32
 2130 083d 20       		.byte	32
 2131 083e 04       		.byte	4
 2132 083f 20       		.byte	32
 2133 0840 02       		.byte	2
 2134 0841 20       		.byte	32
 2135 0842 02       		.byte	2
 2136 0843 20       		.byte	32
 2137 0844 03       		.byte	3
 2138 0845 20       		.byte	32
 2139 0846 FF       		.byte	-1
 2140 0847 FF       		.byte	-1
 2141 0848 FE       		.byte	-2
 2142 0849 FF       		.byte	-1
 2143 084a FE       		.byte	-2
 2144 084b FF       		.byte	-1
 2145 084c 20       		.byte	32
 2146 084d 20       		.byte	32
 2147 084e FE       		.byte	-2
 2148 084f FF       		.byte	-1
 2149 0850 04       		.byte	4
 2150 0851 20       		.byte	32
 2151 0852 04       		.byte	4
 2152 0853 20       		.byte	32
 2153 0854 20       		.byte	32
 2154 0855 20       		.byte	32
 2155 0856 FF       		.byte	-1
 2156 0857 FF       		.byte	-1
 2157 0858 01       		.byte	1
 2158 0859 20       		.byte	32
 2159 085a FF       		.byte	-1
 2160 085b FF       		.byte	-1
 2161 085c FE       		.byte	-2
 2162 085d FF       		.byte	-1
 2163 085e FF       		.byte	-1
 2164 085f FF       		.byte	-1
 2165 0860 FE       		.byte	-2
 2166 0861 FF       		.byte	-1
ARM GAS  C:\Users\embedded\AppData\Local\Temp\ccsTD7zZ.s 			page 39


 2167 0862 03       		.byte	3
 2168 0863 20       		.byte	32
 2169 0864 01       		.byte	1
 2170 0865 20       		.byte	32
 2171 0866 04       		.byte	4
 2172 0867 20       		.byte	32
 2173 0868 02       		.byte	2
 2174 0869 20       		.byte	32
 2175 086a 02       		.byte	2
 2176 086b 20       		.byte	32
 2177 086c 01       		.byte	1
 2178 086d 20       		.byte	32
 2179 086e 02       		.byte	2
 2180 086f 20       		.byte	32
 2181 0870 FE       		.byte	-2
 2182 0871 FF       		.byte	-1
 2183 0872 FB       		.byte	-5
 2184 0873 FF       		.byte	-1
 2185 0874 FD       		.byte	-3
 2186 0875 FF       		.byte	-1
 2187 0876 FD       		.byte	-3
 2188 0877 FF       		.byte	-1
 2189 0878 01       		.byte	1
 2190 0879 20       		.byte	32
 2191 087a FC       		.byte	-4
 2192 087b FF       		.byte	-1
 2193 087c 01       		.byte	1
 2194 087d 20       		.byte	32
 2195 087e FD       		.byte	-3
 2196 087f FF       		.byte	-1
 2197 0880 02       		.byte	2
 2198 0881 20       		.byte	32
 2199 0882 FD       		.byte	-3
 2200 0883 FF       		.byte	-1
 2201 0884 20       		.byte	32
 2202 0885 20       		.byte	32
 2203 0886 20       		.byte	32
 2204 0887 20       		.byte	32
 2205 0888 01       		.byte	1
 2206 0889 20       		.byte	32
 2207 088a 05       		.byte	5
 2208 088b 20       		.byte	32
 2209 088c FE       		.byte	-2
 2210 088d FF       		.byte	-1
 2211 088e 05       		.byte	5
 2212 088f 20       		.byte	32
 2213 0890 FC       		.byte	-4
 2214 0891 FF       		.byte	-1
 2215 0892 09       		.byte	9
 2216 0893 20       		.byte	32
 2217 0894 F7       		.byte	-9
 2218 0895 FF       		.byte	-1
 2219 0896 08       		.byte	8
 2220 0897 20       		.byte	32
 2221 0898 F5       		.byte	-11
 2222 0899 FF       		.byte	-1
 2223 089a 0C       		.byte	12
ARM GAS  C:\Users\embedded\AppData\Local\Temp\ccsTD7zZ.s 			page 40


 2224 089b 20       		.byte	32
 2225 089c F4       		.byte	-12
 2226 089d FF       		.byte	-1
 2227 089e 10       		.byte	16
 2228 089f 20       		.byte	32
 2229 08a0 C4       		.byte	-60
 2230 08a1 02       		.byte	2
 2231 08a2 6E       		.byte	110
 2232 08a3 05       		.byte	5
 2233 08a4 F1       		.byte	-15
 2234 08a5 06       		.byte	6
 2235 08a6 69       		.byte	105
 2236 08a7 08       		.byte	8
 2237 08a8 47       		.byte	71
 2238 08a9 09       		.byte	9
 2239 08aa 03       		.byte	3
 2240 08ab 0A       		.byte	10
 2241 08ac AB       		.byte	-85
 2242 08ad 0A       		.byte	10
 2243 08ae FC       		.byte	-4
 2244 08af 0A       		.byte	10
 2245 08b0 02       		.byte	2
 2246 08b1 0B       		.byte	11
 2247 08b2 57       		.byte	87
 2248 08b3 0B       		.byte	11
 2249 08b4 66       		.byte	102
 2250 08b5 0B       		.byte	11
 2251 08b6 4C       		.byte	76
 2252 08b7 0B       		.byte	11
 2253 08b8 6D       		.byte	109
 2254 08b9 0B       		.byte	11
 2255 08ba 63       		.byte	99
 2256 08bb 0B       		.byte	11
 2257 08bc 7E       		.byte	126
 2258 08bd 0B       		.byte	11
 2259 08be B1       		.byte	-79
 2260 08bf 0B       		.byte	11
 2261 08c0 D2       		.byte	-46
 2262 08c1 0B       		.byte	11
 2263 08c2 D2       		.byte	-46
 2264 08c3 0B       		.byte	11
 2265 08c4 DD       		.byte	-35
 2266 08c5 0B       		.byte	11
 2267 08c6 F2       		.byte	-14
 2268 08c7 0B       		.byte	11
 2269 08c8 04       		.byte	4
 2270 08c9 0C       		.byte	12
 2271 08ca FE       		.byte	-2
 2272 08cb 0B       		.byte	11
 2273 08cc 1F       		.byte	31
 2274 08cd 0C       		.byte	12
 2275 08ce 54       		.byte	84
 2276 08cf 0C       		.byte	12
 2277 08d0 48       		.byte	72
 2278 08d1 0C       		.byte	12
 2279 08d2 17       		.byte	23
 2280 08d3 0C       		.byte	12
ARM GAS  C:\Users\embedded\AppData\Local\Temp\ccsTD7zZ.s 			page 41


 2281 08d4 D6       		.byte	-42
 2282 08d5 0B       		.byte	11
 2283 08d6 E2       		.byte	-30
 2284 08d7 0B       		.byte	11
 2285 08d8 F0       		.byte	-16
 2286 08d9 0B       		.byte	11
 2287 08da E5       		.byte	-27
 2288 08db 0B       		.byte	11
 2289 08dc 05       		.byte	5
 2290 08dd 0C       		.byte	12
 2291 08de 1D       		.byte	29
 2292 08df 0C       		.byte	12
 2293 08e0 0C       		.byte	12
 2294 08e1 0C       		.byte	12
 2295 08e2 1A       		.byte	26
 2296 08e3 0C       		.byte	12
 2297 08e4 2A       		.byte	42
 2298 08e5 0C       		.byte	12
 2299 08e6 36       		.byte	54
 2300 08e7 0C       		.byte	12
 2301 08e8 2A       		.byte	42
 2302 08e9 0C       		.byte	12
 2303 08ea DB       		.byte	-37
 2304 08eb 0B       		.byte	11
 2305 08ec D3       		.byte	-45
 2306 08ed 0B       		.byte	11
 2307 08ee CF       		.byte	-49
 2308 08ef 0B       		.byte	11
 2309 08f0 BF       		.byte	-65
 2310 08f1 0B       		.byte	11
 2311 08f2 D7       		.byte	-41
 2312 08f3 0B       		.byte	11
 2313 08f4 B2       		.byte	-78
 2314 08f5 0B       		.byte	11
 2315 08f6 C6       		.byte	-58
 2316 08f7 0B       		.byte	11
 2317 08f8 16       		.byte	22
 2318 08f9 0C       		.byte	12
 2319 08fa E5       		.byte	-27
 2320 08fb 0B       		.byte	11
 2321 08fc 03       		.byte	3
 2322 08fd 0C       		.byte	12
 2323 08fe 39       		.byte	57
 2324 08ff 0C       		.byte	12
 2325 0900 EF       		.byte	-17
 2326 0901 0B       		.byte	11
 2327 0902 7D       		.byte	125
 2328 0903 0C       		.byte	12
 2329 0904 BD       		.byte	-67
 2330 0905 0B       		.byte	11
 2331 0906 A0       		.byte	-96
 2332 0907 07       		.byte	7
 2333 0908 95       		.byte	-107
 2334 0909 03       		.byte	3
 2335 090a 2E       		.byte	46
 2336 090b 01       		.byte	1
 2337 090c F6       		.byte	-10
ARM GAS  C:\Users\embedded\AppData\Local\Temp\ccsTD7zZ.s 			page 42


 2338 090d FE       		.byte	-2
 2339 090e 63       		.byte	99
 2340 090f FD       		.byte	-3
 2341 0910 75       		.byte	117
 2342 0911 FC       		.byte	-4
 2343 0912 83       		.byte	-125
 2344 0913 FB       		.byte	-5
 2345 0914 FE       		.byte	-2
 2346 0915 FA       		.byte	-6
 2347 0916 A6       		.byte	-90
 2348 0917 FA       		.byte	-6
 2349 0918 35       		.byte	53
 2350 0919 FA       		.byte	-6
 2351 091a E9       		.byte	-23
 2352 091b F9       		.byte	-7
 2353 091c D1       		.byte	-47
 2354 091d F9       		.byte	-7
 2355 091e D5       		.byte	-43
 2356 091f F9       		.byte	-7
 2357 0920 CD       		.byte	-51
 2358 0921 F9       		.byte	-7
 2359 0922 AB       		.byte	-85
 2360 0923 F9       		.byte	-7
 2361 0924 92       		.byte	-110
 2362 0925 F9       		.byte	-7
 2363 0926 7E       		.byte	126
 2364 0927 F9       		.byte	-7
 2365 0928 90       		.byte	-112
 2366 0929 F9       		.byte	-7
 2367 092a 8E       		.byte	-114
 2368 092b F9       		.byte	-7
 2369 092c 64       		.byte	100
 2370 092d F9       		.byte	-7
 2371 092e 81       		.byte	-127
 2372 092f F9       		.byte	-7
 2373 0930 6D       		.byte	109
 2374 0931 F9       		.byte	-7
 2375 0932 3B       		.byte	59
 2376 0933 F9       		.byte	-7
 2377 0934 4D       		.byte	77
 2378 0935 F9       		.byte	-7
 2379 0936 40       		.byte	64
 2380 0937 F9       		.byte	-7
 2381 0938 2B       		.byte	43
 2382 0939 F9       		.byte	-7
 2383 093a 31       		.byte	49
 2384 093b F9       		.byte	-7
 2385 093c 2F       		.byte	47
 2386 093d F9       		.byte	-7
 2387 093e 4A       		.byte	74
 2388 093f F9       		.byte	-7
 2389 0940 59       		.byte	89
 2390 0941 F9       		.byte	-7
 2391 0942 43       		.byte	67
 2392 0943 F9       		.byte	-7
 2393 0944 49       		.byte	73
 2394 0945 F9       		.byte	-7
ARM GAS  C:\Users\embedded\AppData\Local\Temp\ccsTD7zZ.s 			page 43


 2395 0946 41       		.byte	65
 2396 0947 F9       		.byte	-7
 2397 0948 4B       		.byte	75
 2398 0949 F9       		.byte	-7
 2399 094a 45       		.byte	69
 2400 094b F9       		.byte	-7
 2401 094c 26       		.byte	38
 2402 094d F9       		.byte	-7
 2403 094e 51       		.byte	81
 2404 094f F9       		.byte	-7
 2405 0950 4E       		.byte	78
 2406 0951 F9       		.byte	-7
 2407 0952 2B       		.byte	43
 2408 0953 F9       		.byte	-7
 2409 0954 48       		.byte	72
 2410 0955 F9       		.byte	-7
 2411 0956 2D       		.byte	45
 2412 0957 F9       		.byte	-7
 2413 0958 1D       		.byte	29
 2414 0959 F9       		.byte	-7
 2415 095a 41       		.byte	65
 2416 095b F9       		.byte	-7
 2417 095c 24       		.byte	36
 2418 095d F9       		.byte	-7
 2419 095e 4D       		.byte	77
 2420 095f F9       		.byte	-7
 2421 0960 57       		.byte	87
 2422 0961 F9       		.byte	-7
 2423 0962 31       		.byte	49
 2424 0963 F9       		.byte	-7
 2425 0964 6F       		.byte	111
 2426 0965 F9       		.byte	-7
 2427 0966 FA       		.byte	-6
 2428 0967 F8       		.byte	-8
 2429 0968 8D       		.byte	-115
 2430 0969 F9       		.byte	-7
 2431 096a 9D       		.byte	-99
 2432 096b FD       		.byte	-3
 2433 096c DF       		.byte	-33
 2434 096d 01       		.byte	1
 2435 096e 17       		.byte	23
 2436 096f 04       		.byte	4
 2437 0970 15       		.byte	21
 2438 0971 06       		.byte	6
 2439 0972 A9       		.byte	-87
 2440 0973 07       		.byte	7
 2441 0974 98       		.byte	-104
 2442 0975 08       		.byte	8
 2443 0976 95       		.byte	-107
 2444 0977 09       		.byte	9
 2445 0978 30       		.byte	48
 2446 0979 0A       		.byte	10
 2447 097a 9C       		.byte	-100
 2448 097b 0A       		.byte	10
 2449 097c 0A       		.byte	10
 2450 097d 0B       		.byte	11
 2451 097e 26       		.byte	38
ARM GAS  C:\Users\embedded\AppData\Local\Temp\ccsTD7zZ.s 			page 44


 2452 097f 0B       		.byte	11
 2453 0980 4E       		.byte	78
 2454 0981 0B       		.byte	11
 2455 0982 94       		.byte	-108
 2456 0983 0B       		.byte	11
 2457 0984 BB       		.byte	-69
 2458 0985 0B       		.byte	11
 2459 0986 CA       		.byte	-54
 2460 0987 0B       		.byte	11
 2461 0988 BA       		.byte	-70
 2462 0989 0B       		.byte	11
 2463 098a C7       		.byte	-57
 2464 098b 0B       		.byte	11
 2465 098c CC       		.byte	-52
 2466 098d 0B       		.byte	11
 2467 098e C2       		.byte	-62
 2468 098f 0B       		.byte	11
 2469 0990 DC       		.byte	-36
 2470 0991 0B       		.byte	11
 2471 0992 C4       		.byte	-60
 2472 0993 0B       		.byte	11
 2473 0994 B8       		.byte	-72
 2474 0995 0B       		.byte	11
 2475 0996 F2       		.byte	-14
 2476 0997 0B       		.byte	11
 2477 0998 E4       		.byte	-28
 2478 0999 0B       		.byte	11
 2479 099a BB       		.byte	-69
 2480 099b 0B       		.byte	11
 2481 099c D4       		.byte	-44
 2482 099d 0B       		.byte	11
 2483 099e CF       		.byte	-49
 2484 099f 0B       		.byte	11
 2485 09a0 D0       		.byte	-48
 2486 09a1 0B       		.byte	11
 2487 09a2 E3       		.byte	-29
 2488 09a3 0B       		.byte	11
 2489 09a4 DB       		.byte	-37
 2490 09a5 0B       		.byte	11
 2491 09a6 E2       		.byte	-30
 2492 09a7 0B       		.byte	11
 2493 09a8 F7       		.byte	-9
 2494 09a9 0B       		.byte	11
 2495 09aa 05       		.byte	5
 2496 09ab 0C       		.byte	12
 2497 09ac EF       		.byte	-17
 2498 09ad 0B       		.byte	11
 2499 09ae E7       		.byte	-25
 2500 09af 0B       		.byte	11
 2501 09b0 F5       		.byte	-11
 2502 09b1 0B       		.byte	11
 2503 09b2 E6       		.byte	-26
 2504 09b3 0B       		.byte	11
 2505 09b4 FE       		.byte	-2
 2506 09b5 0B       		.byte	11
 2507 09b6 18       		.byte	24
 2508 09b7 0C       		.byte	12
ARM GAS  C:\Users\embedded\AppData\Local\Temp\ccsTD7zZ.s 			page 45


 2509 09b8 F5       		.byte	-11
 2510 09b9 0B       		.byte	11
 2511 09ba ED       		.byte	-19
 2512 09bb 0B       		.byte	11
 2513 09bc DA       		.byte	-38
 2514 09bd 0B       		.byte	11
 2515 09be DB       		.byte	-37
 2516 09bf 0B       		.byte	11
 2517 09c0 1A       		.byte	26
 2518 09c1 0C       		.byte	12
 2519 09c2 FA       		.byte	-6
 2520 09c3 0B       		.byte	11
 2521 09c4 FB       		.byte	-5
 2522 09c5 0B       		.byte	11
 2523 09c6 1A       		.byte	26
 2524 09c7 0C       		.byte	12
 2525 09c8 DE       		.byte	-34
 2526 09c9 0B       		.byte	11
 2527 09ca 58       		.byte	88
 2528 09cb 0C       		.byte	12
 2529 09cc BD       		.byte	-67
 2530 09cd 0B       		.byte	11
 2531 09ce C7       		.byte	-57
 2532 09cf 07       		.byte	7
 2533 09d0 A2       		.byte	-94
 2534 09d1 03       		.byte	3
 2535 09d2 4A       		.byte	74
 2536 09d3 01       		.byte	1
 2537 09d4 36       		.byte	54
 2538 09d5 FF       		.byte	-1
 2539 09d6 A5       		.byte	-91
 2540 09d7 FD       		.byte	-3
 2541 09d8 B1       		.byte	-79
 2542 09d9 FC       		.byte	-4
 2543 09da C5       		.byte	-59
 2544 09db FB       		.byte	-5
 2545 09dc 33       		.byte	51
 2546 09dd FB       		.byte	-5
 2547 09de AD       		.byte	-83
 2548 09df FA       		.byte	-6
 2549 09e0 36       		.byte	54
 2550 09e1 FA       		.byte	-6
 2551 09e2 24       		.byte	36
 2552 09e3 FA       		.byte	-6
 2553 09e4 E6       		.byte	-26
 2554 09e5 F9       		.byte	-7
 2555 09e6 95       		.byte	-107
 2556 09e7 F9       		.byte	-7
 2557 09e8 90       		.byte	-112
 2558 09e9 F9       		.byte	-7
 2559 09ea 88       		.byte	-120
 2560 09eb F9       		.byte	-7
 2561 09ec 7F       		.byte	127
 2562 09ed F9       		.byte	-7
 2563 09ee 7C       		.byte	124
 2564 09ef F9       		.byte	-7
 2565 09f0 68       		.byte	104
ARM GAS  C:\Users\embedded\AppData\Local\Temp\ccsTD7zZ.s 			page 46


 2566 09f1 F9       		.byte	-7
 2567 09f2 53       		.byte	83
 2568 09f3 F9       		.byte	-7
 2569 09f4 4E       		.byte	78
 2570 09f5 F9       		.byte	-7
 2571 09f6 50       		.byte	80
 2572 09f7 F9       		.byte	-7
 2573 09f8 40       		.byte	64
 2574 09f9 F9       		.byte	-7
 2575 09fa 3A       		.byte	58
 2576 09fb F9       		.byte	-7
 2577 09fc 42       		.byte	66
 2578 09fd F9       		.byte	-7
 2579 09fe 3F       		.byte	63
 2580 09ff F9       		.byte	-7
 2581 0a00 4F       		.byte	79
 2582 0a01 F9       		.byte	-7
 2583 0a02 4F       		.byte	79
 2584 0a03 F9       		.byte	-7
 2585 0a04 34       		.byte	52
 2586 0a05 F9       		.byte	-7
 2587 0a06 38       		.byte	56
 2588 0a07 F9       		.byte	-7
 2589 0a08 2A       		.byte	42
 2590 0a09 F9       		.byte	-7
 2591 0a0a 27       		.byte	39
 2592 0a0b F9       		.byte	-7
 2593 0a0c 44       		.byte	68
 2594 0a0d F9       		.byte	-7
 2595 0a0e 32       		.byte	50
 2596 0a0f F9       		.byte	-7
 2597 0a10 31       		.byte	49
 2598 0a11 F9       		.byte	-7
 2599 0a12 42       		.byte	66
 2600 0a13 F9       		.byte	-7
 2601 0a14 2D       		.byte	45
 2602 0a15 F9       		.byte	-7
 2603 0a16 38       		.byte	56
 2604 0a17 F9       		.byte	-7
 2605 0a18 3A       		.byte	58
 2606 0a19 F9       		.byte	-7
 2607 0a1a 26       		.byte	38
 2608 0a1b F9       		.byte	-7
 2609 0a1c 3F       		.byte	63
 2610 0a1d F9       		.byte	-7
 2611 0a1e 41       		.byte	65
 2612 0a1f F9       		.byte	-7
 2613 0a20 58       		.byte	88
 2614 0a21 F9       		.byte	-7
 2615 0a22 68       		.byte	104
 2616 0a23 F9       		.byte	-7
 2617 0a24 39       		.byte	57
 2618 0a25 F9       		.byte	-7
 2619 0a26 56       		.byte	86
 2620 0a27 F9       		.byte	-7
 2621 0a28 51       		.byte	81
 2622 0a29 F9       		.byte	-7
ARM GAS  C:\Users\embedded\AppData\Local\Temp\ccsTD7zZ.s 			page 47


 2623 0a2a 3B       		.byte	59
 2624 0a2b F9       		.byte	-7
 2625 0a2c 7C       		.byte	124
 2626 0a2d F9       		.byte	-7
 2627 0a2e 14       		.byte	20
 2628 0a2f F9       		.byte	-7
 2629 0a30 75       		.byte	117
 2630 0a31 F9       		.byte	-7
 2631 0a32 71       		.byte	113
 2632 0a33 FC       		.byte	-4
 2633 0a34 77       		.byte	119
 2634 0a35 FF       		.byte	-1
 2635 0a36 F6       		.byte	-10
 2636 0a37 20       		.byte	32
 2637 0a38 4C       		.byte	76
 2638 0a39 02       		.byte	2
 2639 0a3a 81       		.byte	-127
 2640 0a3b 03       		.byte	3
 2641 0a3c 4B       		.byte	75
 2642 0a3d 04       		.byte	4
 2643 0a3e E8       		.byte	-24
 2644 0a3f 04       		.byte	4
 2645 0a40 4A       		.byte	74
 2646 0a41 05       		.byte	5
 2647 0a42 A4       		.byte	-92
 2648 0a43 05       		.byte	5
 2649 0a44 DC       		.byte	-36
 2650 0a45 05       		.byte	5
 2651 0a46 EE       		.byte	-18
 2652 0a47 05       		.byte	5
 2653 0a48 2A       		.byte	42
 2654 0a49 06       		.byte	6
 2655 0a4a 59       		.byte	89
 2656 0a4b 06       		.byte	6
 2657 0a4c 64       		.byte	100
 2658 0a4d 06       		.byte	6
 2659 0a4e 72       		.byte	114
 2660 0a4f 06       		.byte	6
 2661 0a50 7D       		.byte	125
 2662 0a51 06       		.byte	6
 2663 0a52 8C       		.byte	-116
 2664 0a53 06       		.byte	6
 2665 0a54 8F       		.byte	-113
 2666 0a55 06       		.byte	6
 2667 0a56 A8       		.byte	-88
 2668 0a57 06       		.byte	6
 2669 0a58 CB       		.byte	-53
 2670 0a59 06       		.byte	6
 2671 0a5a B8       		.byte	-72
 2672 0a5b 06       		.byte	6
 2673 0a5c B1       		.byte	-79
 2674 0a5d 06       		.byte	6
 2675 0a5e BF       		.byte	-65
 2676 0a5f 06       		.byte	6
 2677 0a60 C9       		.byte	-55
 2678 0a61 06       		.byte	6
 2679 0a62 E9       		.byte	-23
ARM GAS  C:\Users\embedded\AppData\Local\Temp\ccsTD7zZ.s 			page 48


 2680 0a63 06       		.byte	6
 2681 0a64 E0       		.byte	-32
 2682 0a65 06       		.byte	6
 2683 0a66 D8       		.byte	-40
 2684 0a67 06       		.byte	6
 2685 0a68 EA       		.byte	-22
 2686 0a69 06       		.byte	6
 2687 0a6a CB       		.byte	-53
 2688 0a6b 06       		.byte	6
 2689 0a6c DB       		.byte	-37
 2690 0a6d 06       		.byte	6
 2691 0a6e FB       		.byte	-5
 2692 0a6f 06       		.byte	6
 2693 0a70 DF       		.byte	-33
 2694 0a71 06       		.byte	6
 2695 0a72 FC       		.byte	-4
 2696 0a73 06       		.byte	6
 2697 0a74 E9       		.byte	-23
 2698 0a75 06       		.byte	6
 2699 0a76 9A       		.byte	-102
 2700 0a77 06       		.byte	6
 2701 0a78 C2       		.byte	-62
 2702 0a79 06       		.byte	6
 2703 0a7a D7       		.byte	-41
 2704 0a7b 06       		.byte	6
 2705 0a7c AF       		.byte	-81
 2706 0a7d 06       		.byte	6
 2707 0a7e B9       		.byte	-71
 2708 0a7f 06       		.byte	6
 2709 0a80 AA       		.byte	-86
 2710 0a81 06       		.byte	6
 2711 0a82 90       		.byte	-112
 2712 0a83 06       		.byte	6
 2713 0a84 94       		.byte	-108
 2714 0a85 06       		.byte	6
 2715 0a86 A3       		.byte	-93
 2716 0a87 06       		.byte	6
 2717 0a88 A8       		.byte	-88
 2718 0a89 06       		.byte	6
 2719 0a8a 80       		.byte	-128
 2720 0a8b 06       		.byte	6
 2721 0a8c 98       		.byte	-104
 2722 0a8d 06       		.byte	6
 2723 0a8e 9F       		.byte	-97
 2724 0a8f 06       		.byte	6
 2725 0a90 73       		.byte	115
 2726 0a91 06       		.byte	6
 2727 0a92 01       		.byte	1
 2728 0a93 07       		.byte	7
 2729 0a94 2D       		.byte	45
 2730 0a95 06       		.byte	6
 2731 0a96 26       		.byte	38
 2732 0a97 02       		.byte	2
 2733 0a98 2A       		.byte	42
 2734 0a99 FE       		.byte	-2
 2735 0a9a DF       		.byte	-33
 2736 0a9b FB       		.byte	-5
ARM GAS  C:\Users\embedded\AppData\Local\Temp\ccsTD7zZ.s 			page 49


 2737 0a9c E1       		.byte	-31
 2738 0a9d F9       		.byte	-7
 2739 0a9e 64       		.byte	100
 2740 0a9f F8       		.byte	-8
 2741 0aa0 57       		.byte	87
 2742 0aa1 F7       		.byte	-9
 2743 0aa2 61       		.byte	97
 2744 0aa3 F6       		.byte	-10
 2745 0aa4 DC       		.byte	-36
 2746 0aa5 F5       		.byte	-11
 2747 0aa6 65       		.byte	101
 2748 0aa7 F5       		.byte	-11
 2749 0aa8 02       		.byte	2
 2750 0aa9 F5       		.byte	-11
 2751 0aaa DE       		.byte	-34
 2752 0aab F4       		.byte	-12
 2753 0aac 9F       		.byte	-97
 2754 0aad F4       		.byte	-12
 2755 0aae 74       		.byte	116
 2756 0aaf F4       		.byte	-12
 2757 0ab0 5A       		.byte	90
 2758 0ab1 F4       		.byte	-12
 2759 0ab2 38       		.byte	56
 2760 0ab3 F4       		.byte	-12
 2761 0ab4 40       		.byte	64
 2762 0ab5 F4       		.byte	-12
 2763 0ab6 2F       		.byte	47
 2764 0ab7 F4       		.byte	-12
 2765 0ab8 1A       		.byte	26
 2766 0ab9 F4       		.byte	-12
 2767 0aba 1E       		.byte	30
 2768 0abb F4       		.byte	-12
 2769 0abc 02       		.byte	2
 2770 0abd F4       		.byte	-12
 2771 0abe FF       		.byte	-1
 2772 0abf F3       		.byte	-13
 2773 0ac0 0B       		.byte	11
 2774 0ac1 F4       		.byte	-12
 2775 0ac2 FB       		.byte	-5
 2776 0ac3 F3       		.byte	-13
 2777 0ac4 F1       		.byte	-15
 2778 0ac5 F3       		.byte	-13
 2779 0ac6 D9       		.byte	-39
 2780 0ac7 F3       		.byte	-13
 2781 0ac8 E2       		.byte	-30
 2782 0ac9 F3       		.byte	-13
 2783 0aca FD       		.byte	-3
 2784 0acb F3       		.byte	-13
 2785 0acc DF       		.byte	-33
 2786 0acd F3       		.byte	-13
 2787 0ace DC       		.byte	-36
 2788 0acf F3       		.byte	-13
 2789 0ad0 E6       		.byte	-26
 2790 0ad1 F3       		.byte	-13
 2791 0ad2 E5       		.byte	-27
 2792 0ad3 F3       		.byte	-13
 2793 0ad4 04       		.byte	4
ARM GAS  C:\Users\embedded\AppData\Local\Temp\ccsTD7zZ.s 			page 50


 2794 0ad5 F4       		.byte	-12
 2795 0ad6 EC       		.byte	-20
 2796 0ad7 F3       		.byte	-13
 2797 0ad8 E5       		.byte	-27
 2798 0ad9 F3       		.byte	-13
 2799 0ada 29       		.byte	41
 2800 0adb F4       		.byte	-12
 2801 0adc 1A       		.byte	26
 2802 0add F4       		.byte	-12
 2803 0ade EA       		.byte	-22
 2804 0adf F3       		.byte	-13
 2805 0ae0 E3       		.byte	-29
 2806 0ae1 F3       		.byte	-13
 2807 0ae2 E7       		.byte	-25
 2808 0ae3 F3       		.byte	-13
 2809 0ae4 12       		.byte	18
 2810 0ae5 F4       		.byte	-12
 2811 0ae6 1E       		.byte	30
 2812 0ae7 F4       		.byte	-12
 2813 0ae8 0F       		.byte	15
 2814 0ae9 F4       		.byte	-12
 2815 0aea 01       		.byte	1
 2816 0aeb F4       		.byte	-12
 2817 0aec E8       		.byte	-24
 2818 0aed F3       		.byte	-13
 2819 0aee 0E       		.byte	14
 2820 0aef F4       		.byte	-12
 2821 0af0 09       		.byte	9
 2822 0af1 F4       		.byte	-12
 2823 0af2 F4       		.byte	-12
 2824 0af3 F3       		.byte	-13
 2825 0af4 2A       		.byte	42
 2826 0af5 F4       		.byte	-12
 2827 0af6 C1       		.byte	-63
 2828 0af7 F3       		.byte	-13
 2829 0af8 80       		.byte	-128
 2830 0af9 F4       		.byte	-12
 2831 0afa 68       		.byte	104
 2832 0afb F8       		.byte	-8
 2833 0afc 65       		.byte	101
 2834 0afd FC       		.byte	-4
 2835 0afe B9       		.byte	-71
 2836 0aff FE       		.byte	-2
 2837 0b00 D3       		.byte	-45
 2838 0b01 20       		.byte	32
 2839 0b02 5F       		.byte	95
 2840 0b03 02       		.byte	2
 2841 0b04 55       		.byte	85
 2842 0b05 03       		.byte	3
 2843 0b06 3F       		.byte	63
 2844 0b07 04       		.byte	4
 2845 0b08 C1       		.byte	-63
 2846 0b09 04       		.byte	4
 2847 0b0a 32       		.byte	50
 2848 0b0b 05       		.byte	5
 2849 0b0c 97       		.byte	-105
 2850 0b0d 05       		.byte	5
ARM GAS  C:\Users\embedded\AppData\Local\Temp\ccsTD7zZ.s 			page 51


 2851 0b0e D1       		.byte	-47
 2852 0b0f 05       		.byte	5
 2853 0b10 24       		.byte	36
 2854 0b11 06       		.byte	6
 2855 0b12 2A       		.byte	42
 2856 0b13 06       		.byte	6
 2857 0b14 30       		.byte	48
 2858 0b15 06       		.byte	6
 2859 0b16 68       		.byte	104
 2860 0b17 06       		.byte	6
 2861 0b18 4D       		.byte	77
 2862 0b19 06       		.byte	6
 2863 0b1a 6C       		.byte	108
 2864 0b1b 06       		.byte	6
 2865 0b1c B1       		.byte	-79
 2866 0b1d 06       		.byte	6
 2867 0b1e 97       		.byte	-105
 2868 0b1f 06       		.byte	6
 2869 0b20 AC       		.byte	-84
 2870 0b21 06       		.byte	6
 2871 0b22 B2       		.byte	-78
 2872 0b23 06       		.byte	6
 2873 0b24 84       		.byte	-124
 2874 0b25 06       		.byte	6
 2875 0b26 A5       		.byte	-91
 2876 0b27 06       		.byte	6
 2877 0b28 BE       		.byte	-66
 2878 0b29 06       		.byte	6
 2879 0b2a B6       		.byte	-74
 2880 0b2b 06       		.byte	6
 2881 0b2c BA       		.byte	-70
 2882 0b2d 06       		.byte	6
 2883 0b2e A8       		.byte	-88
 2884 0b2f 06       		.byte	6
 2885 0b30 99       		.byte	-103
 2886 0b31 06       		.byte	6
 2887 0b32 91       		.byte	-111
 2888 0b33 06       		.byte	6
 2889 0b34 AB       		.byte	-85
 2890 0b35 06       		.byte	6
 2891 0b36 BC       		.byte	-68
 2892 0b37 06       		.byte	6
 2893 0b38 91       		.byte	-111
 2894 0b39 06       		.byte	6
 2895 0b3a A4       		.byte	-92
 2896 0b3b 06       		.byte	6
 2897 0b3c AD       		.byte	-83
 2898 0b3d 06       		.byte	6
 2899 0b3e 61       		.byte	97
 2900 0b3f 06       		.byte	6
 2901 0b40 70       		.byte	112
 2902 0b41 06       		.byte	6
 2903 0b42 A5       		.byte	-91
 2904 0b43 06       		.byte	6
 2905 0b44 A8       		.byte	-88
 2906 0b45 06       		.byte	6
 2907 0b46 A9       		.byte	-87
ARM GAS  C:\Users\embedded\AppData\Local\Temp\ccsTD7zZ.s 			page 52


 2908 0b47 06       		.byte	6
 2909 0b48 93       		.byte	-109
 2910 0b49 06       		.byte	6
 2911 0b4a 8E       		.byte	-114
 2912 0b4b 06       		.byte	6
 2913 0b4c 97       		.byte	-105
 2914 0b4d 06       		.byte	6
 2915 0b4e A0       		.byte	-96
 2916 0b4f 06       		.byte	6
 2917 0b50 BB       		.byte	-69
 2918 0b51 06       		.byte	6
 2919 0b52 A5       		.byte	-91
 2920 0b53 06       		.byte	6
 2921 0b54 BF       		.byte	-65
 2922 0b55 06       		.byte	6
 2923 0b56 D0       		.byte	-48
 2924 0b57 06       		.byte	6
 2925 0b58 92       		.byte	-110
 2926 0b59 06       		.byte	6
 2927 0b5a 1C       		.byte	28
 2928 0b5b 07       		.byte	7
 2929 0b5c 7C       		.byte	124
 2930 0b5d 06       		.byte	6
 2931 0b5e 81       		.byte	-127
 2932 0b5f 02       		.byte	2
 2933 0b60 58       		.byte	88
 2934 0b61 FE       		.byte	-2
 2935 0b62 04       		.byte	4
 2936 0b63 FC       		.byte	-4
 2937 0b64 0E       		.byte	14
 2938 0b65 FA       		.byte	-6
 2939 0b66 6E       		.byte	110
 2940 0b67 F8       		.byte	-8
 2941 0b68 61       		.byte	97
 2942 0b69 F7       		.byte	-9
 2943 0b6a 8B       		.byte	-117
 2944 0b6b F6       		.byte	-10
 2945 0b6c EB       		.byte	-21
 2946 0b6d F5       		.byte	-11
 2947 0b6e 61       		.byte	97
 2948 0b6f F5       		.byte	-11
 2949 0b70 12       		.byte	18
 2950 0b71 F5       		.byte	-11
 2951 0b72 D0       		.byte	-48
 2952 0b73 F4       		.byte	-12
 2953 0b74 83       		.byte	-125
 2954 0b75 F4       		.byte	-12
 2955 0b76 72       		.byte	114
 2956 0b77 F4       		.byte	-12
 2957 0b78 39       		.byte	57
 2958 0b79 F4       		.byte	-12
 2959 0b7a 15       		.byte	21
 2960 0b7b F4       		.byte	-12
 2961 0b7c 4E       		.byte	78
 2962 0b7d F4       		.byte	-12
 2963 0b7e 2D       		.byte	45
 2964 0b7f F4       		.byte	-12
ARM GAS  C:\Users\embedded\AppData\Local\Temp\ccsTD7zZ.s 			page 53


 2965 0b80 FB       		.byte	-5
 2966 0b81 F3       		.byte	-13
 2967 0b82 16       		.byte	22
 2968 0b83 F4       		.byte	-12
 2969 0b84 12       		.byte	18
 2970 0b85 F4       		.byte	-12
 2971 0b86 08       		.byte	8
 2972 0b87 F4       		.byte	-12
 2973 0b88 04       		.byte	4
 2974 0b89 F4       		.byte	-12
 2975 0b8a F8       		.byte	-8
 2976 0b8b F3       		.byte	-13
 2977 0b8c EF       		.byte	-17
 2978 0b8d F3       		.byte	-13
 2979 0b8e E0       		.byte	-32
 2980 0b8f F3       		.byte	-13
 2981 0b90 03       		.byte	3
 2982 0b91 F4       		.byte	-12
 2983 0b92 0D       		.byte	13
 2984 0b93 F4       		.byte	-12
 2985 0b94 F5       		.byte	-11
 2986 0b95 F3       		.byte	-13
 2987 0b96 1D       		.byte	29
 2988 0b97 F4       		.byte	-12
 2989 0b98 1A       		.byte	26
 2990 0b99 F4       		.byte	-12
 2991 0b9a 03       		.byte	3
 2992 0b9b F4       		.byte	-12
 2993 0b9c 0F       		.byte	15
 2994 0b9d F4       		.byte	-12
 2995 0b9e E3       		.byte	-29
 2996 0b9f F3       		.byte	-13
 2997 0ba0 EA       		.byte	-22
 2998 0ba1 F3       		.byte	-13
 2999 0ba2 0D       		.byte	13
 3000 0ba3 F4       		.byte	-12
 3001 0ba4 F1       		.byte	-15
 3002 0ba5 F3       		.byte	-13
 3003 0ba6 08       		.byte	8
 3004 0ba7 F4       		.byte	-12
 3005 0ba8 08       		.byte	8
 3006 0ba9 F4       		.byte	-12
 3007 0baa F0       		.byte	-16
 3008 0bab F3       		.byte	-13
 3009 0bac 09       		.byte	9
 3010 0bad F4       		.byte	-12
 3011 0bae FE       		.byte	-2
 3012 0baf F3       		.byte	-13
 3013 0bb0 20       		.byte	32
 3014 0bb1 F4       		.byte	-12
 3015 0bb2 33       		.byte	51
 3016 0bb3 F4       		.byte	-12
 3017 0bb4 FE       		.byte	-2
 3018 0bb5 F3       		.byte	-13
 3019 0bb6 1F       		.byte	31
 3020 0bb7 F4       		.byte	-12
 3021 0bb8 F0       		.byte	-16
ARM GAS  C:\Users\embedded\AppData\Local\Temp\ccsTD7zZ.s 			page 54


 3022 0bb9 F3       		.byte	-13
 3023 0bba D9       		.byte	-39
 3024 0bbb F3       		.byte	-13
 3025 0bbc 4A       		.byte	74
 3026 0bbd F4       		.byte	-12
 3027 0bbe A5       		.byte	-91
 3028 0bbf F3       		.byte	-13
 3029 0bc0 80       		.byte	-128
 3030 0bc1 F4       		.byte	-12
 3031 0bc2 9C       		.byte	-100
 3032 0bc3 F9       		.byte	-7
 3033 0bc4 CA       		.byte	-54
 3034 0bc5 FE       		.byte	-2
 3035 0bc6 C3       		.byte	-61
 3036 0bc7 01       		.byte	1
 3037 0bc8 62       		.byte	98
 3038 0bc9 04       		.byte	4
 3039 0bca 5D       		.byte	93
 3040 0bcb 06       		.byte	6
 3041 0bcc A3       		.byte	-93
 3042 0bcd 07       		.byte	7
 3043 0bce D6       		.byte	-42
 3044 0bcf 08       		.byte	8
 3045 0bd0 8D       		.byte	-115
 3046 0bd1 09       		.byte	9
 3047 0bd2 24       		.byte	36
 3048 0bd3 0A       		.byte	10
 3049 0bd4 B1       		.byte	-79
 3050 0bd5 0A       		.byte	10
 3051 0bd6 E1       		.byte	-31
 3052 0bd7 0A       		.byte	10
 3053 0bd8 29       		.byte	41
 3054 0bd9 0B       		.byte	11
 3055 0bda 65       		.byte	101
 3056 0bdb 0B       		.byte	11
 3057 0bdc 76       		.byte	118
 3058 0bdd 0B       		.byte	11
 3059 0bde AB       		.byte	-85
 3060 0bdf 0B       		.byte	11
 3061 0be0 C4       		.byte	-60
 3062 0be1 0B       		.byte	11
 3063 0be2 B7       		.byte	-73
 3064 0be3 0B       		.byte	11
 3065 0be4 C4       		.byte	-60
 3066 0be5 0B       		.byte	11
 3067 0be6 E0       		.byte	-32
 3068 0be7 0B       		.byte	11
 3069 0be8 FA       		.byte	-6
 3070 0be9 0B       		.byte	11
 3071 0bea FA       		.byte	-6
 3072 0beb 0B       		.byte	11
 3073 0bec 03       		.byte	3
 3074 0bed 0C       		.byte	12
 3075 0bee 1F       		.byte	31
 3076 0bef 0C       		.byte	12
 3077 0bf0 1A       		.byte	26
 3078 0bf1 0C       		.byte	12
ARM GAS  C:\Users\embedded\AppData\Local\Temp\ccsTD7zZ.s 			page 55


 3079 0bf2 1F       		.byte	31
 3080 0bf3 0C       		.byte	12
 3081 0bf4 2A       		.byte	42
 3082 0bf5 0C       		.byte	12
 3083 0bf6 1D       		.byte	29
 3084 0bf7 0C       		.byte	12
 3085 0bf8 20       		.byte	32
 3086 0bf9 0C       		.byte	12
 3087 0bfa 0C       		.byte	12
 3088 0bfb 0C       		.byte	12
 3089 0bfc 0D       		.byte	13
 3090 0bfd 0C       		.byte	12
 3091 0bfe 41       		.byte	65
 3092 0bff 0C       		.byte	12
 3093 0c00 27       		.byte	39
 3094 0c01 0C       		.byte	12
 3095 0c02 01       		.byte	1
 3096 0c03 0C       		.byte	12
 3097 0c04 08       		.byte	8
 3098 0c05 0C       		.byte	12
 3099 0c06 E5       		.byte	-27
 3100 0c07 0B       		.byte	11
 3101 0c08 F9       		.byte	-7
 3102 0c09 0B       		.byte	11
 3103 0c0a 1F       		.byte	31
 3104 0c0b 0C       		.byte	12
 3105 0c0c F6       		.byte	-10
 3106 0c0d 0B       		.byte	11
 3107 0c0e FD       		.byte	-3
 3108 0c0f 0B       		.byte	11
 3109 0c10 FB       		.byte	-5
 3110 0c11 0B       		.byte	11
 3111 0c12 E2       		.byte	-30
 3112 0c13 0B       		.byte	11
 3113 0c14 0E       		.byte	14
 3114 0c15 0C       		.byte	12
 3115 0c16 EF       		.byte	-17
 3116 0c17 0B       		.byte	11
 3117 0c18 DD       		.byte	-35
 3118 0c19 0B       		.byte	11
 3119 0c1a 19       		.byte	25
 3120 0c1b 0C       		.byte	12
 3121 0c1c E0       		.byte	-32
 3122 0c1d 0B       		.byte	11
 3123 0c1e E6       		.byte	-26
 3124 0c1f 0B       		.byte	11
 3125 0c20 13       		.byte	19
 3126 0c21 0C       		.byte	12
 3127 0c22 CE       		.byte	-50
 3128 0c23 0B       		.byte	11
 3129 0c24 45       		.byte	69
 3130 0c25 0C       		.byte	12
 3131 0c26 9A       		.byte	-102
 3132 0c27 0B       		.byte	11
 3133 0c28 A2       		.byte	-94
 3134 0c29 07       		.byte	7
 3135 0c2a A6       		.byte	-90
ARM GAS  C:\Users\embedded\AppData\Local\Temp\ccsTD7zZ.s 			page 56


 3136 0c2b 03       		.byte	3
 3137 0c2c 5C       		.byte	92
 3138 0c2d 01       		.byte	1
 3139 0c2e 39       		.byte	57
 3140 0c2f FF       		.byte	-1
 3141 0c30 AD       		.byte	-83
 3142 0c31 FD       		.byte	-3
 3143 0c32 BE       		.byte	-66
 3144 0c33 FC       		.byte	-4
 3145 0c34 B8       		.byte	-72
 3146 0c35 FB       		.byte	-5
 3147 0c36 1E       		.byte	30
 3148 0c37 FB       		.byte	-5
 3149 0c38 B8       		.byte	-72
 3150 0c39 FA       		.byte	-6
 3151 0c3a 58       		.byte	88
 3152 0c3b FA       		.byte	-6
 3153 0c3c 42       		.byte	66
 3154 0c3d FA       		.byte	-6
 3155 0c3e 03       		.byte	3
 3156 0c3f FA       		.byte	-6
 3157 0c40 BA       		.byte	-70
 3158 0c41 F9       		.byte	-7
 3159 0c42 9F       		.byte	-97
 3160 0c43 F9       		.byte	-7
 3161 0c44 6F       		.byte	111
 3162 0c45 F9       		.byte	-7
 3163 0c46 70       		.byte	112
 3164 0c47 F9       		.byte	-7
 3165 0c48 91       		.byte	-111
 3166 0c49 F9       		.byte	-7
 3167 0c4a 69       		.byte	105
 3168 0c4b F9       		.byte	-7
 3169 0c4c 3F       		.byte	63
 3170 0c4d F9       		.byte	-7
 3171 0c4e 3A       		.byte	58
 3172 0c4f F9       		.byte	-7
 3173 0c50 2F       		.byte	47
 3174 0c51 F9       		.byte	-7
 3175 0c52 27       		.byte	39
 3176 0c53 F9       		.byte	-7
 3177 0c54 34       		.byte	52
 3178 0c55 F9       		.byte	-7
 3179 0c56 41       		.byte	65
 3180 0c57 F9       		.byte	-7
 3181 0c58 3E       		.byte	62
 3182 0c59 F9       		.byte	-7
 3183 0c5a 3E       		.byte	62
 3184 0c5b F9       		.byte	-7
 3185 0c5c 41       		.byte	65
 3186 0c5d F9       		.byte	-7
 3187 0c5e 45       		.byte	69
 3188 0c5f F9       		.byte	-7
 3189 0c60 52       		.byte	82
 3190 0c61 F9       		.byte	-7
 3191 0c62 46       		.byte	70
 3192 0c63 F9       		.byte	-7
ARM GAS  C:\Users\embedded\AppData\Local\Temp\ccsTD7zZ.s 			page 57


 3193 0c64 31       		.byte	49
 3194 0c65 F9       		.byte	-7
 3195 0c66 43       		.byte	67
 3196 0c67 F9       		.byte	-7
 3197 0c68 5F       		.byte	95
 3198 0c69 F9       		.byte	-7
 3199 0c6a 6A       		.byte	106
 3200 0c6b F9       		.byte	-7
 3201 0c6c 62       		.byte	98
 3202 0c6d F9       		.byte	-7
 3203 0c6e 55       		.byte	85
 3204 0c6f F9       		.byte	-7
 3205 0c70 4A       		.byte	74
 3206 0c71 F9       		.byte	-7
 3207 0c72 41       		.byte	65
 3208 0c73 F9       		.byte	-7
 3209 0c74 69       		.byte	105
 3210 0c75 F9       		.byte	-7
 3211 0c76 7F       		.byte	127
 3212 0c77 F9       		.byte	-7
 3213 0c78 45       		.byte	69
 3214 0c79 F9       		.byte	-7
 3215 0c7a 48       		.byte	72
 3216 0c7b F9       		.byte	-7
 3217 0c7c 5F       		.byte	95
 3218 0c7d F9       		.byte	-7
 3219 0c7e 47       		.byte	71
 3220 0c7f F9       		.byte	-7
 3221 0c80 68       		.byte	104
 3222 0c81 F9       		.byte	-7
 3223 0c82 63       		.byte	99
 3224 0c83 F9       		.byte	-7
 3225 0c84 53       		.byte	83
 3226 0c85 F9       		.byte	-7
 3227 0c86 6F       		.byte	111
 3228 0c87 F9       		.byte	-7
 3229 0c88 F5       		.byte	-11
 3230 0c89 F8       		.byte	-8
 3231 0c8a C8       		.byte	-56
 3232 0c8b F9       		.byte	-7
 3233 0c8c 9F       		.byte	-97
 3234 0c8d FD       		.byte	-3
 3235 0c8e 8B       		.byte	-117
 3236 0c8f 01       		.byte	1
 3237 0c90 FE       		.byte	-2
 3238 0c91 03       		.byte	3
 3239 0c92 36       		.byte	54
 3240 0c93 06       		.byte	6
 3241 0c94 C3       		.byte	-61
 3242 0c95 07       		.byte	7
 3243 0c96 9A       		.byte	-102
 3244 0c97 08       		.byte	8
 3245 0c98 8A       		.byte	-118
 3246 0c99 09       		.byte	9
 3247 0c9a 41       		.byte	65
 3248 0c9b 0A       		.byte	10
 3249 0c9c C1       		.byte	-63
ARM GAS  C:\Users\embedded\AppData\Local\Temp\ccsTD7zZ.s 			page 58


 3250 0c9d 0A       		.byte	10
 3251 0c9e 26       		.byte	38
 3252 0c9f 0B       		.byte	11
 3253              		.text
 3254              		.align	1
 3255              		.global	initDac
 3256              		.syntax unified
 3257              		.code	16
 3258              		.thumb_func
 3259              		.fpu softvfp
 3260              		.type	initDac, %function
 3261              	initDac:
 3262              	.LFB0:
 3263              		.file 1 "dac.c"
   1:dac.c         **** /*
   2:dac.c         ****  *	@Descritpion:	Zawariera zbior deklaracji funkcji zwiazanych
   3:dac.c         ****  *					z wykorzystaniem przetwornika cyfrowo-analogowego
   4:dac.c         ****  */
   5:dac.c         **** 
   6:dac.c         **** #include "general.h"
   7:dac.c         **** #include <printf_P.h>
   8:dac.c         **** #include <lpc2xxx.h>
   9:dac.c         **** #include <config.h>
  10:dac.c         **** #include "dac.h"
  11:dac.c         **** #include "dac_reasources.h"
  12:dac.c         **** 
  13:dac.c         **** /* Tablica probek do odtworzenia */
  14:dac.c         **** extern tU8 soundtrack[numberOfSamples];
  15:dac.c         **** 
  16:dac.c         **** /*
  17:dac.c         ****  *  @brief			Funkcja incijalizujaca przetwornik cyfrowo-analogowy, aby moc odtwarzac
  18:dac.c         ****  *					utwor muzyczny.
  19:dac.c         ****  *
  20:dac.c         ****  *  @Description	Funckja ustawia odpowiednia wartosc w rejestrze PINSEL1 dla pinu P0.25,
  21:dac.c         ****  *					aby aktywowac funkcje wyjscia anologowego przetwornika cyfrowo-analogowego
  22:dac.c         ****  *
  23:dac.c         ****  *  @param 			brak
  24:dac.c         ****  *
  25:dac.c         ****  *  @returns  		nic
  26:dac.c         ****  *
  27:dac.c         ****  *  @side effects	Modyfikacja rejestru PINSEL1
  28:dac.c         ****  */
  29:dac.c         **** void initDac(void)
  30:dac.c         **** {
 3264              		.loc 1 30 0
 3265              		.cfi_startproc
 3266              		@ Function supports interworking.
 3267              		@ args = 0, pretend = 0, frame = 8
 3268              		@ frame_needed = 1, uses_anonymous_args = 0
 3269 0000 80B5     		push	{r7, lr}
 3270              	.LCFI0:
 3271              		.cfi_def_cfa_offset 8
 3272              		.cfi_offset 7, -8
 3273              		.cfi_offset 14, -4
 3274 0002 82B0     		sub	sp, sp, #8
 3275              	.LCFI1:
 3276              		.cfi_def_cfa_offset 16
ARM GAS  C:\Users\embedded\AppData\Local\Temp\ccsTD7zZ.s 			page 59


 3277 0004 00AF     		add	r7, sp, #0
 3278              	.LCFI2:
 3279              		.cfi_def_cfa_register 7
  31:dac.c         **** 	/* Jedynka 32-bitowa */
  32:dac.c         **** 	const tU32 one32 = 1u;
 3280              		.loc 1 32 0
 3281 0006 0123     		movs	r3, #1
 3282 0008 7B60     		str	r3, [r7, #4]
  33:dac.c         **** 
  34:dac.c         **** 	/*	Ustawienie funkcji pinu P0.25 na wyjscie analogowe przetwornika cyfrowo-analogowego. */
  35:dac.c         **** 	PINSEL1 &= ~((one32 << 19) | (one32 << 18));
 3283              		.loc 1 35 0
 3284 000a 104B     		ldr	r3, .L2
 3285 000c 1A68     		ldr	r2, [r3]
 3286 000e 7B68     		ldr	r3, [r7, #4]
 3287 0010 D904     		lsls	r1, r3, #19
 3288 0012 7B68     		ldr	r3, [r7, #4]
 3289 0014 9B04     		lsls	r3, r3, #18
 3290 0016 0B43     		orrs	r3, r1
 3291 0018 D943     		mvns	r1, r3
 3292 001a 0C4B     		ldr	r3, .L2
 3293 001c 0A40     		ands	r2, r1
 3294 001e 1A60     		str	r2, [r3]
  36:dac.c         **** 	PINSEL1 |= (one32 << 19);
 3295              		.loc 1 36 0
 3296 0020 0A4B     		ldr	r3, .L2
 3297 0022 1968     		ldr	r1, [r3]
 3298 0024 7B68     		ldr	r3, [r7, #4]
 3299 0026 DA04     		lsls	r2, r3, #19
 3300 0028 084B     		ldr	r3, .L2
 3301 002a 0A43     		orrs	r2, r1
 3302 002c 1A60     		str	r2, [r3]
  37:dac.c         **** 
  38:dac.c         **** 	DACR &= ~(one32 << 16); /* Ustawienie BIAS na 0, aby settling time wyniosl 1us */
 3303              		.loc 1 38 0
 3304 002e 084B     		ldr	r3, .L2+4
 3305 0030 1A68     		ldr	r2, [r3]
 3306 0032 7B68     		ldr	r3, [r7, #4]
 3307 0034 1B04     		lsls	r3, r3, #16
 3308 0036 D943     		mvns	r1, r3
 3309 0038 054B     		ldr	r3, .L2+4
 3310 003a 0A40     		ands	r2, r1
 3311 003c 1A60     		str	r2, [r3]
  39:dac.c         **** }
 3312              		.loc 1 39 0
 3313 003e C046     		nop
 3314 0040 BD46     		mov	sp, r7
 3315 0042 02B0     		add	sp, sp, #8
 3316              		@ sp needed
 3317 0044 80BC     		pop	{r7}
 3318 0046 01BC     		pop	{r0}
 3319 0048 0047     		bx	r0
 3320              	.L3:
 3321 004a C046     		.align	2
 3322              	.L2:
 3323 004c 04C002E0 		.word	-536690684
 3324 0050 00C006E0 		.word	-536428544
ARM GAS  C:\Users\embedded\AppData\Local\Temp\ccsTD7zZ.s 			page 60


 3325              		.cfi_endproc
 3326              	.LFE0:
 3327              		.size	initDac, .-initDac
 3328              		.align	1
 3329              		.global	putNextSample
 3330              		.syntax unified
 3331              		.code	16
 3332              		.thumb_func
 3333              		.fpu softvfp
 3334              		.type	putNextSample, %function
 3335              	putNextSample:
 3336              	.LFB1:
  40:dac.c         **** 
  41:dac.c         **** 
  42:dac.c         **** /*
  43:dac.c         ****  *  @brief			Funkcja wywolywana okresowo, ktora zapisuje kolejna wartosc probki
  44:dac.c         ****  * 					utworu odwarzanego do rejestru przetwornika Cyfrowo-Analogowego.
  45:dac.c         ****  *
  46:dac.c         ****  *  @Description	Funkcja ta jest wywolywana okresowo na skutek przerwan zglaszany przez
  47:dac.c         ****  * 					Timer#1. Co kazde swoje wywolanie wprowadza do rejestru przetwornika DAC
  48:dac.c         ****  * 					kolejna 10-bitowa wartosc probki odwtwarzanego utworu.
  49:dac.c         ****  *
  50:dac.c         ****  *  @param 			brak
  51:dac.c         ****  *
  52:dac.c         ****  *  @returns  		nic
  53:dac.c         ****  *
  54:dac.c         ****  *  @side effects	Modyfikacja zawartosci rejestru DACR
  55:dac.c         ****  */
  56:dac.c         **** void putNextSample(void)
  57:dac.c         **** {
 3337              		.loc 1 57 0
 3338              		.cfi_startproc
 3339              		@ Function supports interworking.
 3340              		@ args = 0, pretend = 0, frame = 0
 3341              		@ frame_needed = 1, uses_anonymous_args = 0
 3342 0054 80B5     		push	{r7, lr}
 3343              	.LCFI3:
 3344              		.cfi_def_cfa_offset 8
 3345              		.cfi_offset 7, -8
 3346              		.cfi_offset 14, -4
 3347 0056 00AF     		add	r7, sp, #0
 3348              	.LCFI4:
 3349              		.cfi_def_cfa_register 7
  58:dac.c         **** 	static tU32 sampleNumberToSend = 0; /* Statyczna zmienna przechowujaca informacje o numerze probki
  59:dac.c         **** 
  60:dac.c         **** 	/* W prowadzenie do rejestru przetwornika DA (na bity 15.-6.) zawartosc 8-bitowej probki, ktora ma
  61:dac.c         **** 	DACR = (0xFFFF003FU & DACR) | (((tU32)soundtrack[sampleNumberToSend]) << 6);
 3350              		.loc 1 61 0
 3351 0058 0F4B     		ldr	r3, .L7
 3352 005a 1B68     		ldr	r3, [r3]
 3353 005c 0F4A     		ldr	r2, .L7+4
 3354 005e 1340     		ands	r3, r2
 3355 0060 1900     		movs	r1, r3
 3356 0062 0F4B     		ldr	r3, .L7+8
 3357 0064 1B68     		ldr	r3, [r3]
 3358 0066 0F4A     		ldr	r2, .L7+12
 3359 0068 D35C     		ldrb	r3, [r2, r3]
ARM GAS  C:\Users\embedded\AppData\Local\Temp\ccsTD7zZ.s 			page 61


 3360 006a 9A01     		lsls	r2, r3, #6
 3361 006c 0A4B     		ldr	r3, .L7
 3362 006e 0A43     		orrs	r2, r1
 3363 0070 1A60     		str	r2, [r3]
  62:dac.c         **** 
  63:dac.c         **** 	sampleNumberToSend++;
 3364              		.loc 1 63 0
 3365 0072 0B4B     		ldr	r3, .L7+8
 3366 0074 1B68     		ldr	r3, [r3]
 3367 0076 5A1C     		adds	r2, r3, #1
 3368 0078 094B     		ldr	r3, .L7+8
 3369 007a 1A60     		str	r2, [r3]
  64:dac.c         **** 	if(sampleNumberToSend >= (tU32)numberOfSamples)
 3370              		.loc 1 64 0
 3371 007c 084B     		ldr	r3, .L7+8
 3372 007e 1B68     		ldr	r3, [r3]
 3373 0080 094A     		ldr	r2, .L7+16
 3374 0082 9342     		cmp	r3, r2
 3375 0084 02D9     		bls	.L6
  65:dac.c         **** 	{
  66:dac.c         **** 		sampleNumberToSend = 0;
 3376              		.loc 1 66 0
 3377 0086 064B     		ldr	r3, .L7+8
 3378 0088 0022     		movs	r2, #0
 3379 008a 1A60     		str	r2, [r3]
 3380              	.L6:
  67:dac.c         **** 	}
  68:dac.c         **** }
 3381              		.loc 1 68 0
 3382 008c C046     		nop
 3383 008e BD46     		mov	sp, r7
 3384              		@ sp needed
 3385 0090 80BC     		pop	{r7}
 3386 0092 01BC     		pop	{r0}
 3387 0094 0047     		bx	r0
 3388              	.L8:
 3389 0096 C046     		.align	2
 3390              	.L7:
 3391 0098 00C006E0 		.word	-536428544
 3392 009c 3F00FFFF 		.word	-65473
 3393 00a0 00000000 		.word	sampleNumberToSend.4149
 3394 00a4 00000000 		.word	soundtrack
 3395 00a8 9F0C0000 		.word	3231
 3396              		.cfi_endproc
 3397              	.LFE1:
 3398              		.size	putNextSample, .-putNextSample
 3399              		.bss
 3400              		.align	2
 3401              	sampleNumberToSend.4149:
 3402 0000 00000000 		.space	4
 3403              		.size	sampleNumberToSend.4149, 4
 3404              		.text
 3405              	.Letext0:
 3406              		.file 2 "general.h"
 3407              		.file 3 "dac_reasources.h"
 3408              		.section	.debug_info,"",%progbits
 3409              	.Ldebug_info0:
ARM GAS  C:\Users\embedded\AppData\Local\Temp\ccsTD7zZ.s 			page 62


 3410 0000 E9000000 		.4byte	0xe9
 3411 0004 0200     		.2byte	0x2
 3412 0006 00000000 		.4byte	.Ldebug_abbrev0
 3413 000a 04       		.byte	0x4
 3414 000b 01       		.uleb128 0x1
 3415 000c 43000000 		.4byte	.LASF10
 3416 0010 0C       		.byte	0xc
 3417 0011 00000000 		.4byte	.LASF11
 3418 0015 EA000000 		.4byte	.LASF12
 3419 0019 00000000 		.4byte	.Ltext0
 3420 001d AC000000 		.4byte	.Letext0
 3421 0021 00000000 		.4byte	.Ldebug_line0
 3422 0025 02       		.uleb128 0x2
 3423 0026 74553800 		.ascii	"tU8\000"
 3424 002a 02       		.byte	0x2
 3425 002b 07       		.byte	0x7
 3426 002c 30000000 		.4byte	0x30
 3427 0030 03       		.uleb128 0x3
 3428 0031 01       		.byte	0x1
 3429 0032 08       		.byte	0x8
 3430 0033 35000000 		.4byte	.LASF0
 3431 0037 03       		.uleb128 0x3
 3432 0038 02       		.byte	0x2
 3433 0039 07       		.byte	0x7
 3434 003a 08010000 		.4byte	.LASF1
 3435 003e 04       		.uleb128 0x4
 3436 003f 47010000 		.4byte	.LASF2
 3437 0043 02       		.byte	0x2
 3438 0044 09       		.byte	0x9
 3439 0045 4E000000 		.4byte	0x4e
 3440 0049 05       		.uleb128 0x5
 3441 004a 3E000000 		.4byte	0x3e
 3442 004e 03       		.uleb128 0x3
 3443 004f 04       		.byte	0x4
 3444 0050 07       		.byte	0x7
 3445 0051 06000000 		.4byte	.LASF3
 3446 0055 03       		.uleb128 0x3
 3447 0056 08       		.byte	0x8
 3448 0057 07       		.byte	0x7
 3449 0058 13000000 		.4byte	.LASF4
 3450 005c 03       		.uleb128 0x3
 3451 005d 01       		.byte	0x1
 3452 005e 06       		.byte	0x6
 3453 005f 1B010000 		.4byte	.LASF5
 3454 0063 03       		.uleb128 0x3
 3455 0064 02       		.byte	0x2
 3456 0065 05       		.byte	0x5
 3457 0066 27010000 		.4byte	.LASF6
 3458 006a 06       		.uleb128 0x6
 3459 006b 04       		.byte	0x4
 3460 006c 05       		.byte	0x5
 3461 006d 696E7400 		.ascii	"int\000"
 3462 0071 03       		.uleb128 0x3
 3463 0072 08       		.byte	0x8
 3464 0073 05       		.byte	0x5
 3465 0074 DC000000 		.4byte	.LASF7
 3466 0078 07       		.uleb128 0x7
ARM GAS  C:\Users\embedded\AppData\Local\Temp\ccsTD7zZ.s 			page 63


 3467 0079 25000000 		.4byte	0x25
 3468 007d 89000000 		.4byte	0x89
 3469 0081 08       		.uleb128 0x8
 3470 0082 4E000000 		.4byte	0x4e
 3471 0086 9F0C     		.2byte	0xc9f
 3472 0088 00       		.byte	0
 3473 0089 09       		.uleb128 0x9
 3474 008a 2A000000 		.4byte	.LASF13
 3475 008e 03       		.byte	0x3
 3476 008f 0E       		.byte	0xe
 3477 0090 78000000 		.4byte	0x78
 3478 0094 01       		.byte	0x1
 3479 0095 05       		.byte	0x5
 3480 0096 03       		.byte	0x3
 3481 0097 00000000 		.4byte	soundtrack
 3482 009b 0A       		.uleb128 0xa
 3483 009c 01       		.byte	0x1
 3484 009d 39010000 		.4byte	.LASF14
 3485 00a1 01       		.byte	0x1
 3486 00a2 38       		.byte	0x38
 3487 00a3 01       		.byte	0x1
 3488 00a4 54000000 		.4byte	.LFB1
 3489 00a8 AC000000 		.4byte	.LFE1
 3490 00ac 00000000 		.4byte	.LLST1
 3491 00b0 01       		.byte	0x1
 3492 00b1 C7000000 		.4byte	0xc7
 3493 00b5 0B       		.uleb128 0xb
 3494 00b6 C3000000 		.4byte	.LASF8
 3495 00ba 01       		.byte	0x1
 3496 00bb 3A       		.byte	0x3a
 3497 00bc 3E000000 		.4byte	0x3e
 3498 00c0 05       		.byte	0x5
 3499 00c1 03       		.byte	0x3
 3500 00c2 00000000 		.4byte	sampleNumberToSend.4149
 3501 00c6 00       		.byte	0
 3502 00c7 0C       		.uleb128 0xc
 3503 00c8 01       		.byte	0x1
 3504 00c9 31010000 		.4byte	.LASF15
 3505 00cd 01       		.byte	0x1
 3506 00ce 1D       		.byte	0x1d
 3507 00cf 01       		.byte	0x1
 3508 00d0 00000000 		.4byte	.LFB0
 3509 00d4 54000000 		.4byte	.LFE0
 3510 00d8 2C000000 		.4byte	.LLST0
 3511 00dc 01       		.byte	0x1
 3512 00dd 0B       		.uleb128 0xb
 3513 00de D6000000 		.4byte	.LASF9
 3514 00e2 01       		.byte	0x1
 3515 00e3 20       		.byte	0x20
 3516 00e4 49000000 		.4byte	0x49
 3517 00e8 02       		.byte	0x2
 3518 00e9 91       		.byte	0x91
 3519 00ea 74       		.sleb128 -12
 3520 00eb 00       		.byte	0
 3521 00ec 00       		.byte	0
 3522              		.section	.debug_abbrev,"",%progbits
 3523              	.Ldebug_abbrev0:
ARM GAS  C:\Users\embedded\AppData\Local\Temp\ccsTD7zZ.s 			page 64


 3524 0000 01       		.uleb128 0x1
 3525 0001 11       		.uleb128 0x11
 3526 0002 01       		.byte	0x1
 3527 0003 25       		.uleb128 0x25
 3528 0004 0E       		.uleb128 0xe
 3529 0005 13       		.uleb128 0x13
 3530 0006 0B       		.uleb128 0xb
 3531 0007 03       		.uleb128 0x3
 3532 0008 0E       		.uleb128 0xe
 3533 0009 1B       		.uleb128 0x1b
 3534 000a 0E       		.uleb128 0xe
 3535 000b 11       		.uleb128 0x11
 3536 000c 01       		.uleb128 0x1
 3537 000d 12       		.uleb128 0x12
 3538 000e 01       		.uleb128 0x1
 3539 000f 10       		.uleb128 0x10
 3540 0010 06       		.uleb128 0x6
 3541 0011 00       		.byte	0
 3542 0012 00       		.byte	0
 3543 0013 02       		.uleb128 0x2
 3544 0014 16       		.uleb128 0x16
 3545 0015 00       		.byte	0
 3546 0016 03       		.uleb128 0x3
 3547 0017 08       		.uleb128 0x8
 3548 0018 3A       		.uleb128 0x3a
 3549 0019 0B       		.uleb128 0xb
 3550 001a 3B       		.uleb128 0x3b
 3551 001b 0B       		.uleb128 0xb
 3552 001c 49       		.uleb128 0x49
 3553 001d 13       		.uleb128 0x13
 3554 001e 00       		.byte	0
 3555 001f 00       		.byte	0
 3556 0020 03       		.uleb128 0x3
 3557 0021 24       		.uleb128 0x24
 3558 0022 00       		.byte	0
 3559 0023 0B       		.uleb128 0xb
 3560 0024 0B       		.uleb128 0xb
 3561 0025 3E       		.uleb128 0x3e
 3562 0026 0B       		.uleb128 0xb
 3563 0027 03       		.uleb128 0x3
 3564 0028 0E       		.uleb128 0xe
 3565 0029 00       		.byte	0
 3566 002a 00       		.byte	0
 3567 002b 04       		.uleb128 0x4
 3568 002c 16       		.uleb128 0x16
 3569 002d 00       		.byte	0
 3570 002e 03       		.uleb128 0x3
 3571 002f 0E       		.uleb128 0xe
 3572 0030 3A       		.uleb128 0x3a
 3573 0031 0B       		.uleb128 0xb
 3574 0032 3B       		.uleb128 0x3b
 3575 0033 0B       		.uleb128 0xb
 3576 0034 49       		.uleb128 0x49
 3577 0035 13       		.uleb128 0x13
 3578 0036 00       		.byte	0
 3579 0037 00       		.byte	0
 3580 0038 05       		.uleb128 0x5
ARM GAS  C:\Users\embedded\AppData\Local\Temp\ccsTD7zZ.s 			page 65


 3581 0039 26       		.uleb128 0x26
 3582 003a 00       		.byte	0
 3583 003b 49       		.uleb128 0x49
 3584 003c 13       		.uleb128 0x13
 3585 003d 00       		.byte	0
 3586 003e 00       		.byte	0
 3587 003f 06       		.uleb128 0x6
 3588 0040 24       		.uleb128 0x24
 3589 0041 00       		.byte	0
 3590 0042 0B       		.uleb128 0xb
 3591 0043 0B       		.uleb128 0xb
 3592 0044 3E       		.uleb128 0x3e
 3593 0045 0B       		.uleb128 0xb
 3594 0046 03       		.uleb128 0x3
 3595 0047 08       		.uleb128 0x8
 3596 0048 00       		.byte	0
 3597 0049 00       		.byte	0
 3598 004a 07       		.uleb128 0x7
 3599 004b 01       		.uleb128 0x1
 3600 004c 01       		.byte	0x1
 3601 004d 49       		.uleb128 0x49
 3602 004e 13       		.uleb128 0x13
 3603 004f 01       		.uleb128 0x1
 3604 0050 13       		.uleb128 0x13
 3605 0051 00       		.byte	0
 3606 0052 00       		.byte	0
 3607 0053 08       		.uleb128 0x8
 3608 0054 21       		.uleb128 0x21
 3609 0055 00       		.byte	0
 3610 0056 49       		.uleb128 0x49
 3611 0057 13       		.uleb128 0x13
 3612 0058 2F       		.uleb128 0x2f
 3613 0059 05       		.uleb128 0x5
 3614 005a 00       		.byte	0
 3615 005b 00       		.byte	0
 3616 005c 09       		.uleb128 0x9
 3617 005d 34       		.uleb128 0x34
 3618 005e 00       		.byte	0
 3619 005f 03       		.uleb128 0x3
 3620 0060 0E       		.uleb128 0xe
 3621 0061 3A       		.uleb128 0x3a
 3622 0062 0B       		.uleb128 0xb
 3623 0063 3B       		.uleb128 0x3b
 3624 0064 0B       		.uleb128 0xb
 3625 0065 49       		.uleb128 0x49
 3626 0066 13       		.uleb128 0x13
 3627 0067 3F       		.uleb128 0x3f
 3628 0068 0C       		.uleb128 0xc
 3629 0069 02       		.uleb128 0x2
 3630 006a 0A       		.uleb128 0xa
 3631 006b 00       		.byte	0
 3632 006c 00       		.byte	0
 3633 006d 0A       		.uleb128 0xa
 3634 006e 2E       		.uleb128 0x2e
 3635 006f 01       		.byte	0x1
 3636 0070 3F       		.uleb128 0x3f
 3637 0071 0C       		.uleb128 0xc
ARM GAS  C:\Users\embedded\AppData\Local\Temp\ccsTD7zZ.s 			page 66


 3638 0072 03       		.uleb128 0x3
 3639 0073 0E       		.uleb128 0xe
 3640 0074 3A       		.uleb128 0x3a
 3641 0075 0B       		.uleb128 0xb
 3642 0076 3B       		.uleb128 0x3b
 3643 0077 0B       		.uleb128 0xb
 3644 0078 27       		.uleb128 0x27
 3645 0079 0C       		.uleb128 0xc
 3646 007a 11       		.uleb128 0x11
 3647 007b 01       		.uleb128 0x1
 3648 007c 12       		.uleb128 0x12
 3649 007d 01       		.uleb128 0x1
 3650 007e 40       		.uleb128 0x40
 3651 007f 06       		.uleb128 0x6
 3652 0080 9742     		.uleb128 0x2117
 3653 0082 0C       		.uleb128 0xc
 3654 0083 01       		.uleb128 0x1
 3655 0084 13       		.uleb128 0x13
 3656 0085 00       		.byte	0
 3657 0086 00       		.byte	0
 3658 0087 0B       		.uleb128 0xb
 3659 0088 34       		.uleb128 0x34
 3660 0089 00       		.byte	0
 3661 008a 03       		.uleb128 0x3
 3662 008b 0E       		.uleb128 0xe
 3663 008c 3A       		.uleb128 0x3a
 3664 008d 0B       		.uleb128 0xb
 3665 008e 3B       		.uleb128 0x3b
 3666 008f 0B       		.uleb128 0xb
 3667 0090 49       		.uleb128 0x49
 3668 0091 13       		.uleb128 0x13
 3669 0092 02       		.uleb128 0x2
 3670 0093 0A       		.uleb128 0xa
 3671 0094 00       		.byte	0
 3672 0095 00       		.byte	0
 3673 0096 0C       		.uleb128 0xc
 3674 0097 2E       		.uleb128 0x2e
 3675 0098 01       		.byte	0x1
 3676 0099 3F       		.uleb128 0x3f
 3677 009a 0C       		.uleb128 0xc
 3678 009b 03       		.uleb128 0x3
 3679 009c 0E       		.uleb128 0xe
 3680 009d 3A       		.uleb128 0x3a
 3681 009e 0B       		.uleb128 0xb
 3682 009f 3B       		.uleb128 0x3b
 3683 00a0 0B       		.uleb128 0xb
 3684 00a1 27       		.uleb128 0x27
 3685 00a2 0C       		.uleb128 0xc
 3686 00a3 11       		.uleb128 0x11
 3687 00a4 01       		.uleb128 0x1
 3688 00a5 12       		.uleb128 0x12
 3689 00a6 01       		.uleb128 0x1
 3690 00a7 40       		.uleb128 0x40
 3691 00a8 06       		.uleb128 0x6
 3692 00a9 9742     		.uleb128 0x2117
 3693 00ab 0C       		.uleb128 0xc
 3694 00ac 00       		.byte	0
ARM GAS  C:\Users\embedded\AppData\Local\Temp\ccsTD7zZ.s 			page 67


 3695 00ad 00       		.byte	0
 3696 00ae 00       		.byte	0
 3697              		.section	.debug_loc,"",%progbits
 3698              	.Ldebug_loc0:
 3699              	.LLST1:
 3700 0000 54000000 		.4byte	.LFB1-.Ltext0
 3701 0004 56000000 		.4byte	.LCFI3-.Ltext0
 3702 0008 0200     		.2byte	0x2
 3703 000a 7D       		.byte	0x7d
 3704 000b 00       		.sleb128 0
 3705 000c 56000000 		.4byte	.LCFI3-.Ltext0
 3706 0010 58000000 		.4byte	.LCFI4-.Ltext0
 3707 0014 0200     		.2byte	0x2
 3708 0016 7D       		.byte	0x7d
 3709 0017 08       		.sleb128 8
 3710 0018 58000000 		.4byte	.LCFI4-.Ltext0
 3711 001c AC000000 		.4byte	.LFE1-.Ltext0
 3712 0020 0200     		.2byte	0x2
 3713 0022 77       		.byte	0x77
 3714 0023 08       		.sleb128 8
 3715 0024 00000000 		.4byte	0
 3716 0028 00000000 		.4byte	0
 3717              	.LLST0:
 3718 002c 00000000 		.4byte	.LFB0-.Ltext0
 3719 0030 02000000 		.4byte	.LCFI0-.Ltext0
 3720 0034 0200     		.2byte	0x2
 3721 0036 7D       		.byte	0x7d
 3722 0037 00       		.sleb128 0
 3723 0038 02000000 		.4byte	.LCFI0-.Ltext0
 3724 003c 04000000 		.4byte	.LCFI1-.Ltext0
 3725 0040 0200     		.2byte	0x2
 3726 0042 7D       		.byte	0x7d
 3727 0043 08       		.sleb128 8
 3728 0044 04000000 		.4byte	.LCFI1-.Ltext0
 3729 0048 06000000 		.4byte	.LCFI2-.Ltext0
 3730 004c 0200     		.2byte	0x2
 3731 004e 7D       		.byte	0x7d
 3732 004f 10       		.sleb128 16
 3733 0050 06000000 		.4byte	.LCFI2-.Ltext0
 3734 0054 54000000 		.4byte	.LFE0-.Ltext0
 3735 0058 0200     		.2byte	0x2
 3736 005a 77       		.byte	0x77
 3737 005b 10       		.sleb128 16
 3738 005c 00000000 		.4byte	0
 3739 0060 00000000 		.4byte	0
 3740              		.section	.debug_aranges,"",%progbits
 3741 0000 1C000000 		.4byte	0x1c
 3742 0004 0200     		.2byte	0x2
 3743 0006 00000000 		.4byte	.Ldebug_info0
 3744 000a 04       		.byte	0x4
 3745 000b 00       		.byte	0
 3746 000c 0000     		.2byte	0
 3747 000e 0000     		.2byte	0
 3748 0010 00000000 		.4byte	.Ltext0
 3749 0014 AC000000 		.4byte	.Letext0-.Ltext0
 3750 0018 00000000 		.4byte	0
 3751 001c 00000000 		.4byte	0
ARM GAS  C:\Users\embedded\AppData\Local\Temp\ccsTD7zZ.s 			page 68


 3752              		.section	.debug_line,"",%progbits
 3753              	.Ldebug_line0:
 3754 0000 5F000000 		.section	.debug_str,"MS",%progbits,1
 3754      02003D00 
 3754      00000201 
 3754      FB0E0D00 
 3754      01010101 
 3755              	.LASF11:
 3756 0000 6461632E 		.ascii	"dac.c\000"
 3756      6300
 3757              	.LASF3:
 3758 0006 756E7369 		.ascii	"unsigned int\000"
 3758      676E6564 
 3758      20696E74 
 3758      00
 3759              	.LASF4:
 3760 0013 6C6F6E67 		.ascii	"long long unsigned int\000"
 3760      206C6F6E 
 3760      6720756E 
 3760      7369676E 
 3760      65642069 
 3761              	.LASF13:
 3762 002a 736F756E 		.ascii	"soundtrack\000"
 3762      64747261 
 3762      636B00
 3763              	.LASF0:
 3764 0035 756E7369 		.ascii	"unsigned char\000"
 3764      676E6564 
 3764      20636861 
 3764      7200
 3765              	.LASF10:
 3766 0043 474E5520 		.ascii	"GNU C11 7.3.1 20180622 (release) [ARM/embedded-7-br"
 3766      43313120 
 3766      372E332E 
 3766      31203230 
 3766      31383036 
 3767 0076 616E6368 		.ascii	"anch revision 261907] -mcpu=arm7tdmi -mthumb -mthum"
 3767      20726576 
 3767      6973696F 
 3767      6E203236 
 3767      31393037 
 3768 00a9 622D696E 		.ascii	"b-interwork -gdwarf-2 -O0\000"
 3768      74657277 
 3768      6F726B20 
 3768      2D676477 
 3768      6172662D 
 3769              	.LASF8:
 3770 00c3 73616D70 		.ascii	"sampleNumberToSend\000"
 3770      6C654E75 
 3770      6D626572 
 3770      546F5365 
 3770      6E6400
 3771              	.LASF9:
 3772 00d6 6F6E6533 		.ascii	"one32\000"
 3772      3200
 3773              	.LASF7:
 3774 00dc 6C6F6E67 		.ascii	"long long int\000"
ARM GAS  C:\Users\embedded\AppData\Local\Temp\ccsTD7zZ.s 			page 69


 3774      206C6F6E 
 3774      6720696E 
 3774      7400
 3775              	.LASF12:
 3776 00ea 433A5C45 		.ascii	"C:\\Embedded\\2138MiniDemo\\2138\000"
 3776      6D626564 
 3776      6465645C 
 3776      32313338 
 3776      4D696E69 
 3777              	.LASF1:
 3778 0108 73686F72 		.ascii	"short unsigned int\000"
 3778      7420756E 
 3778      7369676E 
 3778      65642069 
 3778      6E7400
 3779              	.LASF5:
 3780 011b 7369676E 		.ascii	"signed char\000"
 3780      65642063 
 3780      68617200 
 3781              	.LASF6:
 3782 0127 73686F72 		.ascii	"short int\000"
 3782      7420696E 
 3782      7400
 3783              	.LASF15:
 3784 0131 696E6974 		.ascii	"initDac\000"
 3784      44616300 
 3785              	.LASF14:
 3786 0139 7075744E 		.ascii	"putNextSample\000"
 3786      65787453 
 3786      616D706C 
 3786      6500
 3787              	.LASF2:
 3788 0147 74553332 		.ascii	"tU32\000"
 3788      00
 3789              		.ident	"GCC: (GNU Tools for Arm Embedded Processors 7-2018-q2-update) 7.3.1 20180622 (release) [AR
ARM GAS  C:\Users\embedded\AppData\Local\Temp\ccsTD7zZ.s 			page 70


DEFINED SYMBOLS
                            *ABS*:00000000 dac.c
C:\Users\embedded\AppData\Local\Temp\ccsTD7zZ.s:20     .data:00000000 soundtrack
C:\Users\embedded\AppData\Local\Temp\ccsTD7zZ.s:17     .data:00000000 $d
C:\Users\embedded\AppData\Local\Temp\ccsTD7zZ.s:3261   .text:00000000 initDac
C:\Users\embedded\AppData\Local\Temp\ccsTD7zZ.s:3269   .text:00000000 $t
C:\Users\embedded\AppData\Local\Temp\ccsTD7zZ.s:3323   .text:0000004c $d
C:\Users\embedded\AppData\Local\Temp\ccsTD7zZ.s:3328   .text:00000054 $t
C:\Users\embedded\AppData\Local\Temp\ccsTD7zZ.s:3335   .text:00000054 putNextSample
C:\Users\embedded\AppData\Local\Temp\ccsTD7zZ.s:3391   .text:00000098 $d
C:\Users\embedded\AppData\Local\Temp\ccsTD7zZ.s:3401   .bss:00000000 sampleNumberToSend.4149
C:\Users\embedded\AppData\Local\Temp\ccsTD7zZ.s:3400   .bss:00000000 $d

NO UNDEFINED SYMBOLS
