ARM GAS  C:\Users\embedded\AppData\Local\Temp\ccbbimIb.s 			page 1


   1              		.cpu arm7tdmi
   2              		.eabi_attribute 20, 1
   3              		.eabi_attribute 21, 1
   4              		.eabi_attribute 23, 3
   5              		.eabi_attribute 24, 1
   6              		.eabi_attribute 25, 1
   7              		.eabi_attribute 26, 1
   8              		.eabi_attribute 30, 6
   9              		.eabi_attribute 34, 0
  10              		.eabi_attribute 18, 4
  11              		.file	"lcd.c"
  12              		.text
  13              	.Ltext0:
  14              		.cfi_sections	.debug_frame
  15              		.global	charMap
  16              		.section	.rodata
  17              		.align	2
  18              		.type	charMap, %object
  19              		.size	charMap, 1372
  20              	charMap:
  21 0000 00       		.byte	0
  22 0001 00       		.byte	0
  23 0002 00       		.byte	0
  24 0003 80       		.byte	-128
  25 0004 C0       		.byte	-64
  26 0005 E0       		.byte	-32
  27 0006 F8       		.byte	-8
  28 0007 FE       		.byte	-2
  29 0008 F8       		.byte	-8
  30 0009 E0       		.byte	-32
  31 000a C0       		.byte	-64
  32 000b 80       		.byte	-128
  33 000c 00       		.byte	0
  34 000d 00       		.byte	0
  35 000e 00       		.byte	0
  36 000f 00       		.byte	0
  37 0010 00       		.byte	0
  38 0011 02       		.byte	2
  39 0012 06       		.byte	6
  40 0013 0E       		.byte	14
  41 0014 3E       		.byte	62
  42 0015 FE       		.byte	-2
  43 0016 3E       		.byte	62
  44 0017 0E       		.byte	14
  45 0018 06       		.byte	6
  46 0019 02       		.byte	2
  47 001a 00       		.byte	0
  48 001b 00       		.byte	0
  49 001c 00       		.byte	0
  50 001d 00       		.byte	0
  51 001e 00       		.byte	0
  52 001f 00       		.byte	0
  53 0020 00       		.byte	0
  54 0021 00       		.byte	0
  55 0022 00       		.byte	0
  56 0023 00       		.byte	0
  57 0024 00       		.byte	0
ARM GAS  C:\Users\embedded\AppData\Local\Temp\ccbbimIb.s 			page 2


  58 0025 00       		.byte	0
  59 0026 00       		.byte	0
  60 0027 00       		.byte	0
  61 0028 00       		.byte	0
  62 0029 00       		.byte	0
  63 002a 00       		.byte	0
  64 002b 00       		.byte	0
  65 002c 00       		.byte	0
  66 002d 18       		.byte	24
  67 002e 3C       		.byte	60
  68 002f 3C       		.byte	60
  69 0030 3C       		.byte	60
  70 0031 18       		.byte	24
  71 0032 18       		.byte	24
  72 0033 00       		.byte	0
  73 0034 18       		.byte	24
  74 0035 18       		.byte	24
  75 0036 00       		.byte	0
  76 0037 00       		.byte	0
  77 0038 00       		.byte	0
  78 0039 66       		.byte	102
  79 003a 66       		.byte	102
  80 003b 66       		.byte	102
  81 003c 24       		.byte	36
  82 003d 00       		.byte	0
  83 003e 00       		.byte	0
  84 003f 00       		.byte	0
  85 0040 00       		.byte	0
  86 0041 00       		.byte	0
  87 0042 00       		.byte	0
  88 0043 00       		.byte	0
  89 0044 00       		.byte	0
  90 0045 00       		.byte	0
  91 0046 00       		.byte	0
  92 0047 00       		.byte	0
  93 0048 00       		.byte	0
  94 0049 6C       		.byte	108
  95 004a 6C       		.byte	108
  96 004b FE       		.byte	-2
  97 004c 6C       		.byte	108
  98 004d 6C       		.byte	108
  99 004e 6C       		.byte	108
 100 004f FE       		.byte	-2
 101 0050 6C       		.byte	108
 102 0051 6C       		.byte	108
 103 0052 00       		.byte	0
 104 0053 00       		.byte	0
 105 0054 00       		.byte	0
 106 0055 18       		.byte	24
 107 0056 18       		.byte	24
 108 0057 7C       		.byte	124
 109 0058 C6       		.byte	-58
 110 0059 C2       		.byte	-62
 111 005a C0       		.byte	-64
 112 005b 7C       		.byte	124
 113 005c 06       		.byte	6
 114 005d 86       		.byte	-122
ARM GAS  C:\Users\embedded\AppData\Local\Temp\ccbbimIb.s 			page 3


 115 005e C6       		.byte	-58
 116 005f 7C       		.byte	124
 117 0060 18       		.byte	24
 118 0061 18       		.byte	24
 119 0062 00       		.byte	0
 120 0063 00       		.byte	0
 121 0064 00       		.byte	0
 122 0065 00       		.byte	0
 123 0066 00       		.byte	0
 124 0067 C2       		.byte	-62
 125 0068 C6       		.byte	-58
 126 0069 0C       		.byte	12
 127 006a 18       		.byte	24
 128 006b 30       		.byte	48
 129 006c 66       		.byte	102
 130 006d C6       		.byte	-58
 131 006e 00       		.byte	0
 132 006f 00       		.byte	0
 133 0070 00       		.byte	0
 134 0071 00       		.byte	0
 135 0072 00       		.byte	0
 136 0073 38       		.byte	56
 137 0074 6C       		.byte	108
 138 0075 6C       		.byte	108
 139 0076 38       		.byte	56
 140 0077 76       		.byte	118
 141 0078 DC       		.byte	-36
 142 0079 CC       		.byte	-52
 143 007a CC       		.byte	-52
 144 007b 76       		.byte	118
 145 007c 00       		.byte	0
 146 007d 00       		.byte	0
 147 007e 00       		.byte	0
 148 007f 18       		.byte	24
 149 0080 18       		.byte	24
 150 0081 18       		.byte	24
 151 0082 30       		.byte	48
 152 0083 00       		.byte	0
 153 0084 00       		.byte	0
 154 0085 00       		.byte	0
 155 0086 00       		.byte	0
 156 0087 00       		.byte	0
 157 0088 00       		.byte	0
 158 0089 00       		.byte	0
 159 008a 00       		.byte	0
 160 008b 00       		.byte	0
 161 008c 00       		.byte	0
 162 008d 00       		.byte	0
 163 008e 00       		.byte	0
 164 008f 0C       		.byte	12
 165 0090 18       		.byte	24
 166 0091 30       		.byte	48
 167 0092 30       		.byte	48
 168 0093 30       		.byte	48
 169 0094 30       		.byte	48
 170 0095 30       		.byte	48
 171 0096 18       		.byte	24
ARM GAS  C:\Users\embedded\AppData\Local\Temp\ccbbimIb.s 			page 4


 172 0097 0C       		.byte	12
 173 0098 00       		.byte	0
 174 0099 00       		.byte	0
 175 009a 00       		.byte	0
 176 009b 00       		.byte	0
 177 009c 00       		.byte	0
 178 009d 30       		.byte	48
 179 009e 18       		.byte	24
 180 009f 0C       		.byte	12
 181 00a0 0C       		.byte	12
 182 00a1 0C       		.byte	12
 183 00a2 0C       		.byte	12
 184 00a3 0C       		.byte	12
 185 00a4 18       		.byte	24
 186 00a5 30       		.byte	48
 187 00a6 00       		.byte	0
 188 00a7 00       		.byte	0
 189 00a8 00       		.byte	0
 190 00a9 00       		.byte	0
 191 00aa 00       		.byte	0
 192 00ab 00       		.byte	0
 193 00ac 00       		.byte	0
 194 00ad 66       		.byte	102
 195 00ae 3C       		.byte	60
 196 00af FF       		.byte	-1
 197 00b0 3C       		.byte	60
 198 00b1 66       		.byte	102
 199 00b2 00       		.byte	0
 200 00b3 00       		.byte	0
 201 00b4 00       		.byte	0
 202 00b5 00       		.byte	0
 203 00b6 00       		.byte	0
 204 00b7 00       		.byte	0
 205 00b8 00       		.byte	0
 206 00b9 00       		.byte	0
 207 00ba 00       		.byte	0
 208 00bb 18       		.byte	24
 209 00bc 18       		.byte	24
 210 00bd 7E       		.byte	126
 211 00be 18       		.byte	24
 212 00bf 18       		.byte	24
 213 00c0 00       		.byte	0
 214 00c1 00       		.byte	0
 215 00c2 00       		.byte	0
 216 00c3 00       		.byte	0
 217 00c4 00       		.byte	0
 218 00c5 00       		.byte	0
 219 00c6 00       		.byte	0
 220 00c7 00       		.byte	0
 221 00c8 00       		.byte	0
 222 00c9 00       		.byte	0
 223 00ca 00       		.byte	0
 224 00cb 00       		.byte	0
 225 00cc 00       		.byte	0
 226 00cd 18       		.byte	24
 227 00ce 18       		.byte	24
 228 00cf 18       		.byte	24
ARM GAS  C:\Users\embedded\AppData\Local\Temp\ccbbimIb.s 			page 5


 229 00d0 30       		.byte	48
 230 00d1 00       		.byte	0
 231 00d2 00       		.byte	0
 232 00d3 00       		.byte	0
 233 00d4 00       		.byte	0
 234 00d5 00       		.byte	0
 235 00d6 00       		.byte	0
 236 00d7 00       		.byte	0
 237 00d8 00       		.byte	0
 238 00d9 FE       		.byte	-2
 239 00da 00       		.byte	0
 240 00db 00       		.byte	0
 241 00dc 00       		.byte	0
 242 00dd 00       		.byte	0
 243 00de 00       		.byte	0
 244 00df 00       		.byte	0
 245 00e0 00       		.byte	0
 246 00e1 00       		.byte	0
 247 00e2 00       		.byte	0
 248 00e3 00       		.byte	0
 249 00e4 00       		.byte	0
 250 00e5 00       		.byte	0
 251 00e6 00       		.byte	0
 252 00e7 00       		.byte	0
 253 00e8 00       		.byte	0
 254 00e9 00       		.byte	0
 255 00ea 18       		.byte	24
 256 00eb 18       		.byte	24
 257 00ec 00       		.byte	0
 258 00ed 00       		.byte	0
 259 00ee 00       		.byte	0
 260 00ef 00       		.byte	0
 261 00f0 00       		.byte	0
 262 00f1 02       		.byte	2
 263 00f2 06       		.byte	6
 264 00f3 0C       		.byte	12
 265 00f4 18       		.byte	24
 266 00f5 30       		.byte	48
 267 00f6 60       		.byte	96
 268 00f7 C0       		.byte	-64
 269 00f8 80       		.byte	-128
 270 00f9 00       		.byte	0
 271 00fa 00       		.byte	0
 272 00fb 00       		.byte	0
 273 00fc 00       		.byte	0
 274 00fd 00       		.byte	0
 275 00fe 00       		.byte	0
 276 00ff 38       		.byte	56
 277 0100 6C       		.byte	108
 278 0101 C6       		.byte	-58
 279 0102 C6       		.byte	-58
 280 0103 D6       		.byte	-42
 281 0104 C6       		.byte	-58
 282 0105 C6       		.byte	-58
 283 0106 6C       		.byte	108
 284 0107 38       		.byte	56
 285 0108 00       		.byte	0
ARM GAS  C:\Users\embedded\AppData\Local\Temp\ccbbimIb.s 			page 6


 286 0109 00       		.byte	0
 287 010a 00       		.byte	0
 288 010b 00       		.byte	0
 289 010c 00       		.byte	0
 290 010d 18       		.byte	24
 291 010e 38       		.byte	56
 292 010f 78       		.byte	120
 293 0110 18       		.byte	24
 294 0111 18       		.byte	24
 295 0112 18       		.byte	24
 296 0113 18       		.byte	24
 297 0114 18       		.byte	24
 298 0115 7E       		.byte	126
 299 0116 00       		.byte	0
 300 0117 00       		.byte	0
 301 0118 00       		.byte	0
 302 0119 00       		.byte	0
 303 011a 00       		.byte	0
 304 011b 7C       		.byte	124
 305 011c C6       		.byte	-58
 306 011d 06       		.byte	6
 307 011e 0C       		.byte	12
 308 011f 18       		.byte	24
 309 0120 30       		.byte	48
 310 0121 60       		.byte	96
 311 0122 C6       		.byte	-58
 312 0123 FE       		.byte	-2
 313 0124 00       		.byte	0
 314 0125 00       		.byte	0
 315 0126 00       		.byte	0
 316 0127 00       		.byte	0
 317 0128 00       		.byte	0
 318 0129 7C       		.byte	124
 319 012a C6       		.byte	-58
 320 012b 06       		.byte	6
 321 012c 06       		.byte	6
 322 012d 3C       		.byte	60
 323 012e 06       		.byte	6
 324 012f 06       		.byte	6
 325 0130 C6       		.byte	-58
 326 0131 7C       		.byte	124
 327 0132 00       		.byte	0
 328 0133 00       		.byte	0
 329 0134 00       		.byte	0
 330 0135 00       		.byte	0
 331 0136 00       		.byte	0
 332 0137 0C       		.byte	12
 333 0138 1C       		.byte	28
 334 0139 3C       		.byte	60
 335 013a 6C       		.byte	108
 336 013b CC       		.byte	-52
 337 013c FE       		.byte	-2
 338 013d 0C       		.byte	12
 339 013e 0C       		.byte	12
 340 013f 1E       		.byte	30
 341 0140 00       		.byte	0
 342 0141 00       		.byte	0
ARM GAS  C:\Users\embedded\AppData\Local\Temp\ccbbimIb.s 			page 7


 343 0142 00       		.byte	0
 344 0143 00       		.byte	0
 345 0144 00       		.byte	0
 346 0145 FE       		.byte	-2
 347 0146 C0       		.byte	-64
 348 0147 C0       		.byte	-64
 349 0148 C0       		.byte	-64
 350 0149 FC       		.byte	-4
 351 014a 06       		.byte	6
 352 014b 06       		.byte	6
 353 014c C6       		.byte	-58
 354 014d 7C       		.byte	124
 355 014e 00       		.byte	0
 356 014f 00       		.byte	0
 357 0150 00       		.byte	0
 358 0151 00       		.byte	0
 359 0152 00       		.byte	0
 360 0153 38       		.byte	56
 361 0154 60       		.byte	96
 362 0155 C0       		.byte	-64
 363 0156 C0       		.byte	-64
 364 0157 FC       		.byte	-4
 365 0158 C6       		.byte	-58
 366 0159 C6       		.byte	-58
 367 015a C6       		.byte	-58
 368 015b 7C       		.byte	124
 369 015c 00       		.byte	0
 370 015d 00       		.byte	0
 371 015e 00       		.byte	0
 372 015f 00       		.byte	0
 373 0160 00       		.byte	0
 374 0161 FE       		.byte	-2
 375 0162 C6       		.byte	-58
 376 0163 06       		.byte	6
 377 0164 0C       		.byte	12
 378 0165 18       		.byte	24
 379 0166 30       		.byte	48
 380 0167 30       		.byte	48
 381 0168 30       		.byte	48
 382 0169 30       		.byte	48
 383 016a 00       		.byte	0
 384 016b 00       		.byte	0
 385 016c 00       		.byte	0
 386 016d 00       		.byte	0
 387 016e 00       		.byte	0
 388 016f 7C       		.byte	124
 389 0170 C6       		.byte	-58
 390 0171 C6       		.byte	-58
 391 0172 C6       		.byte	-58
 392 0173 7C       		.byte	124
 393 0174 C6       		.byte	-58
 394 0175 C6       		.byte	-58
 395 0176 C6       		.byte	-58
 396 0177 7C       		.byte	124
 397 0178 00       		.byte	0
 398 0179 00       		.byte	0
 399 017a 00       		.byte	0
ARM GAS  C:\Users\embedded\AppData\Local\Temp\ccbbimIb.s 			page 8


 400 017b 00       		.byte	0
 401 017c 00       		.byte	0
 402 017d 7C       		.byte	124
 403 017e C6       		.byte	-58
 404 017f C6       		.byte	-58
 405 0180 C6       		.byte	-58
 406 0181 7E       		.byte	126
 407 0182 06       		.byte	6
 408 0183 06       		.byte	6
 409 0184 0C       		.byte	12
 410 0185 78       		.byte	120
 411 0186 00       		.byte	0
 412 0187 00       		.byte	0
 413 0188 00       		.byte	0
 414 0189 00       		.byte	0
 415 018a 00       		.byte	0
 416 018b 00       		.byte	0
 417 018c 18       		.byte	24
 418 018d 18       		.byte	24
 419 018e 00       		.byte	0
 420 018f 00       		.byte	0
 421 0190 00       		.byte	0
 422 0191 18       		.byte	24
 423 0192 18       		.byte	24
 424 0193 00       		.byte	0
 425 0194 00       		.byte	0
 426 0195 00       		.byte	0
 427 0196 00       		.byte	0
 428 0197 00       		.byte	0
 429 0198 00       		.byte	0
 430 0199 00       		.byte	0
 431 019a 18       		.byte	24
 432 019b 18       		.byte	24
 433 019c 00       		.byte	0
 434 019d 00       		.byte	0
 435 019e 00       		.byte	0
 436 019f 18       		.byte	24
 437 01a0 18       		.byte	24
 438 01a1 30       		.byte	48
 439 01a2 00       		.byte	0
 440 01a3 00       		.byte	0
 441 01a4 00       		.byte	0
 442 01a5 00       		.byte	0
 443 01a6 00       		.byte	0
 444 01a7 0C       		.byte	12
 445 01a8 18       		.byte	24
 446 01a9 30       		.byte	48
 447 01aa 60       		.byte	96
 448 01ab C0       		.byte	-64
 449 01ac 60       		.byte	96
 450 01ad 30       		.byte	48
 451 01ae 18       		.byte	24
 452 01af 0C       		.byte	12
 453 01b0 00       		.byte	0
 454 01b1 00       		.byte	0
 455 01b2 00       		.byte	0
 456 01b3 00       		.byte	0
ARM GAS  C:\Users\embedded\AppData\Local\Temp\ccbbimIb.s 			page 9


 457 01b4 00       		.byte	0
 458 01b5 00       		.byte	0
 459 01b6 00       		.byte	0
 460 01b7 00       		.byte	0
 461 01b8 7E       		.byte	126
 462 01b9 00       		.byte	0
 463 01ba 00       		.byte	0
 464 01bb 7E       		.byte	126
 465 01bc 00       		.byte	0
 466 01bd 00       		.byte	0
 467 01be 00       		.byte	0
 468 01bf 00       		.byte	0
 469 01c0 00       		.byte	0
 470 01c1 00       		.byte	0
 471 01c2 00       		.byte	0
 472 01c3 60       		.byte	96
 473 01c4 30       		.byte	48
 474 01c5 18       		.byte	24
 475 01c6 0C       		.byte	12
 476 01c7 06       		.byte	6
 477 01c8 0C       		.byte	12
 478 01c9 18       		.byte	24
 479 01ca 30       		.byte	48
 480 01cb 60       		.byte	96
 481 01cc 00       		.byte	0
 482 01cd 00       		.byte	0
 483 01ce 00       		.byte	0
 484 01cf 00       		.byte	0
 485 01d0 00       		.byte	0
 486 01d1 7C       		.byte	124
 487 01d2 C6       		.byte	-58
 488 01d3 C6       		.byte	-58
 489 01d4 0C       		.byte	12
 490 01d5 18       		.byte	24
 491 01d6 18       		.byte	24
 492 01d7 00       		.byte	0
 493 01d8 18       		.byte	24
 494 01d9 18       		.byte	24
 495 01da 00       		.byte	0
 496 01db 00       		.byte	0
 497 01dc 00       		.byte	0
 498 01dd 00       		.byte	0
 499 01de 00       		.byte	0
 500 01df 7C       		.byte	124
 501 01e0 C6       		.byte	-58
 502 01e1 C6       		.byte	-58
 503 01e2 DE       		.byte	-34
 504 01e3 DE       		.byte	-34
 505 01e4 DE       		.byte	-34
 506 01e5 DC       		.byte	-36
 507 01e6 C0       		.byte	-64
 508 01e7 7C       		.byte	124
 509 01e8 00       		.byte	0
 510 01e9 00       		.byte	0
 511 01ea 00       		.byte	0
 512 01eb 00       		.byte	0
 513 01ec 00       		.byte	0
ARM GAS  C:\Users\embedded\AppData\Local\Temp\ccbbimIb.s 			page 10


 514 01ed 10       		.byte	16
 515 01ee 38       		.byte	56
 516 01ef 6C       		.byte	108
 517 01f0 C6       		.byte	-58
 518 01f1 C6       		.byte	-58
 519 01f2 FE       		.byte	-2
 520 01f3 C6       		.byte	-58
 521 01f4 C6       		.byte	-58
 522 01f5 C6       		.byte	-58
 523 01f6 00       		.byte	0
 524 01f7 00       		.byte	0
 525 01f8 00       		.byte	0
 526 01f9 00       		.byte	0
 527 01fa 00       		.byte	0
 528 01fb FC       		.byte	-4
 529 01fc 66       		.byte	102
 530 01fd 66       		.byte	102
 531 01fe 66       		.byte	102
 532 01ff 7C       		.byte	124
 533 0200 66       		.byte	102
 534 0201 66       		.byte	102
 535 0202 66       		.byte	102
 536 0203 FC       		.byte	-4
 537 0204 00       		.byte	0
 538 0205 00       		.byte	0
 539 0206 00       		.byte	0
 540 0207 00       		.byte	0
 541 0208 00       		.byte	0
 542 0209 3C       		.byte	60
 543 020a 66       		.byte	102
 544 020b C2       		.byte	-62
 545 020c C0       		.byte	-64
 546 020d C0       		.byte	-64
 547 020e C0       		.byte	-64
 548 020f C2       		.byte	-62
 549 0210 66       		.byte	102
 550 0211 3C       		.byte	60
 551 0212 00       		.byte	0
 552 0213 00       		.byte	0
 553 0214 00       		.byte	0
 554 0215 00       		.byte	0
 555 0216 00       		.byte	0
 556 0217 F8       		.byte	-8
 557 0218 6C       		.byte	108
 558 0219 66       		.byte	102
 559 021a 66       		.byte	102
 560 021b 66       		.byte	102
 561 021c 66       		.byte	102
 562 021d 66       		.byte	102
 563 021e 6C       		.byte	108
 564 021f F8       		.byte	-8
 565 0220 00       		.byte	0
 566 0221 00       		.byte	0
 567 0222 00       		.byte	0
 568 0223 00       		.byte	0
 569 0224 00       		.byte	0
 570 0225 FE       		.byte	-2
ARM GAS  C:\Users\embedded\AppData\Local\Temp\ccbbimIb.s 			page 11


 571 0226 66       		.byte	102
 572 0227 62       		.byte	98
 573 0228 68       		.byte	104
 574 0229 78       		.byte	120
 575 022a 68       		.byte	104
 576 022b 62       		.byte	98
 577 022c 66       		.byte	102
 578 022d FE       		.byte	-2
 579 022e 00       		.byte	0
 580 022f 00       		.byte	0
 581 0230 00       		.byte	0
 582 0231 00       		.byte	0
 583 0232 00       		.byte	0
 584 0233 FE       		.byte	-2
 585 0234 66       		.byte	102
 586 0235 62       		.byte	98
 587 0236 68       		.byte	104
 588 0237 78       		.byte	120
 589 0238 68       		.byte	104
 590 0239 60       		.byte	96
 591 023a 60       		.byte	96
 592 023b F0       		.byte	-16
 593 023c 00       		.byte	0
 594 023d 00       		.byte	0
 595 023e 00       		.byte	0
 596 023f 00       		.byte	0
 597 0240 00       		.byte	0
 598 0241 3C       		.byte	60
 599 0242 66       		.byte	102
 600 0243 C2       		.byte	-62
 601 0244 C0       		.byte	-64
 602 0245 C0       		.byte	-64
 603 0246 DE       		.byte	-34
 604 0247 C6       		.byte	-58
 605 0248 66       		.byte	102
 606 0249 3A       		.byte	58
 607 024a 00       		.byte	0
 608 024b 00       		.byte	0
 609 024c 00       		.byte	0
 610 024d 00       		.byte	0
 611 024e 00       		.byte	0
 612 024f C6       		.byte	-58
 613 0250 C6       		.byte	-58
 614 0251 C6       		.byte	-58
 615 0252 C6       		.byte	-58
 616 0253 FE       		.byte	-2
 617 0254 C6       		.byte	-58
 618 0255 C6       		.byte	-58
 619 0256 C6       		.byte	-58
 620 0257 C6       		.byte	-58
 621 0258 00       		.byte	0
 622 0259 00       		.byte	0
 623 025a 00       		.byte	0
 624 025b 00       		.byte	0
 625 025c 00       		.byte	0
 626 025d 3C       		.byte	60
 627 025e 18       		.byte	24
ARM GAS  C:\Users\embedded\AppData\Local\Temp\ccbbimIb.s 			page 12


 628 025f 18       		.byte	24
 629 0260 18       		.byte	24
 630 0261 18       		.byte	24
 631 0262 18       		.byte	24
 632 0263 18       		.byte	24
 633 0264 18       		.byte	24
 634 0265 3C       		.byte	60
 635 0266 00       		.byte	0
 636 0267 00       		.byte	0
 637 0268 00       		.byte	0
 638 0269 00       		.byte	0
 639 026a 00       		.byte	0
 640 026b 1E       		.byte	30
 641 026c 0C       		.byte	12
 642 026d 0C       		.byte	12
 643 026e 0C       		.byte	12
 644 026f 0C       		.byte	12
 645 0270 0C       		.byte	12
 646 0271 CC       		.byte	-52
 647 0272 CC       		.byte	-52
 648 0273 78       		.byte	120
 649 0274 00       		.byte	0
 650 0275 00       		.byte	0
 651 0276 00       		.byte	0
 652 0277 00       		.byte	0
 653 0278 00       		.byte	0
 654 0279 E6       		.byte	-26
 655 027a 66       		.byte	102
 656 027b 6C       		.byte	108
 657 027c 6C       		.byte	108
 658 027d 78       		.byte	120
 659 027e 6C       		.byte	108
 660 027f 6C       		.byte	108
 661 0280 66       		.byte	102
 662 0281 E6       		.byte	-26
 663 0282 00       		.byte	0
 664 0283 00       		.byte	0
 665 0284 00       		.byte	0
 666 0285 00       		.byte	0
 667 0286 00       		.byte	0
 668 0287 F0       		.byte	-16
 669 0288 60       		.byte	96
 670 0289 60       		.byte	96
 671 028a 60       		.byte	96
 672 028b 60       		.byte	96
 673 028c 60       		.byte	96
 674 028d 62       		.byte	98
 675 028e 66       		.byte	102
 676 028f FE       		.byte	-2
 677 0290 00       		.byte	0
 678 0291 00       		.byte	0
 679 0292 00       		.byte	0
 680 0293 00       		.byte	0
 681 0294 00       		.byte	0
 682 0295 C6       		.byte	-58
 683 0296 EE       		.byte	-18
 684 0297 FE       		.byte	-2
ARM GAS  C:\Users\embedded\AppData\Local\Temp\ccbbimIb.s 			page 13


 685 0298 D6       		.byte	-42
 686 0299 C6       		.byte	-58
 687 029a C6       		.byte	-58
 688 029b C6       		.byte	-58
 689 029c C6       		.byte	-58
 690 029d C6       		.byte	-58
 691 029e 00       		.byte	0
 692 029f 00       		.byte	0
 693 02a0 00       		.byte	0
 694 02a1 00       		.byte	0
 695 02a2 00       		.byte	0
 696 02a3 C6       		.byte	-58
 697 02a4 E6       		.byte	-26
 698 02a5 F6       		.byte	-10
 699 02a6 FE       		.byte	-2
 700 02a7 DE       		.byte	-34
 701 02a8 CE       		.byte	-50
 702 02a9 C6       		.byte	-58
 703 02aa C6       		.byte	-58
 704 02ab C6       		.byte	-58
 705 02ac 00       		.byte	0
 706 02ad 00       		.byte	0
 707 02ae 00       		.byte	0
 708 02af 00       		.byte	0
 709 02b0 00       		.byte	0
 710 02b1 7C       		.byte	124
 711 02b2 C6       		.byte	-58
 712 02b3 C6       		.byte	-58
 713 02b4 C6       		.byte	-58
 714 02b5 C6       		.byte	-58
 715 02b6 C6       		.byte	-58
 716 02b7 C6       		.byte	-58
 717 02b8 C6       		.byte	-58
 718 02b9 7C       		.byte	124
 719 02ba 00       		.byte	0
 720 02bb 00       		.byte	0
 721 02bc 00       		.byte	0
 722 02bd 00       		.byte	0
 723 02be 00       		.byte	0
 724 02bf FC       		.byte	-4
 725 02c0 66       		.byte	102
 726 02c1 66       		.byte	102
 727 02c2 66       		.byte	102
 728 02c3 7C       		.byte	124
 729 02c4 60       		.byte	96
 730 02c5 60       		.byte	96
 731 02c6 60       		.byte	96
 732 02c7 F0       		.byte	-16
 733 02c8 00       		.byte	0
 734 02c9 00       		.byte	0
 735 02ca 00       		.byte	0
 736 02cb 00       		.byte	0
 737 02cc 00       		.byte	0
 738 02cd 7C       		.byte	124
 739 02ce C6       		.byte	-58
 740 02cf C6       		.byte	-58
 741 02d0 C6       		.byte	-58
ARM GAS  C:\Users\embedded\AppData\Local\Temp\ccbbimIb.s 			page 14


 742 02d1 C6       		.byte	-58
 743 02d2 C6       		.byte	-58
 744 02d3 D6       		.byte	-42
 745 02d4 DE       		.byte	-34
 746 02d5 7C       		.byte	124
 747 02d6 0E       		.byte	14
 748 02d7 00       		.byte	0
 749 02d8 00       		.byte	0
 750 02d9 00       		.byte	0
 751 02da 00       		.byte	0
 752 02db FC       		.byte	-4
 753 02dc 66       		.byte	102
 754 02dd 66       		.byte	102
 755 02de 66       		.byte	102
 756 02df 7C       		.byte	124
 757 02e0 6C       		.byte	108
 758 02e1 66       		.byte	102
 759 02e2 66       		.byte	102
 760 02e3 E6       		.byte	-26
 761 02e4 00       		.byte	0
 762 02e5 00       		.byte	0
 763 02e6 00       		.byte	0
 764 02e7 00       		.byte	0
 765 02e8 00       		.byte	0
 766 02e9 7C       		.byte	124
 767 02ea C6       		.byte	-58
 768 02eb C6       		.byte	-58
 769 02ec 60       		.byte	96
 770 02ed 38       		.byte	56
 771 02ee 0C       		.byte	12
 772 02ef C6       		.byte	-58
 773 02f0 C6       		.byte	-58
 774 02f1 7C       		.byte	124
 775 02f2 00       		.byte	0
 776 02f3 00       		.byte	0
 777 02f4 00       		.byte	0
 778 02f5 00       		.byte	0
 779 02f6 00       		.byte	0
 780 02f7 7E       		.byte	126
 781 02f8 7E       		.byte	126
 782 02f9 5A       		.byte	90
 783 02fa 18       		.byte	24
 784 02fb 18       		.byte	24
 785 02fc 18       		.byte	24
 786 02fd 18       		.byte	24
 787 02fe 18       		.byte	24
 788 02ff 3C       		.byte	60
 789 0300 00       		.byte	0
 790 0301 00       		.byte	0
 791 0302 00       		.byte	0
 792 0303 00       		.byte	0
 793 0304 00       		.byte	0
 794 0305 C6       		.byte	-58
 795 0306 C6       		.byte	-58
 796 0307 C6       		.byte	-58
 797 0308 C6       		.byte	-58
 798 0309 C6       		.byte	-58
ARM GAS  C:\Users\embedded\AppData\Local\Temp\ccbbimIb.s 			page 15


 799 030a C6       		.byte	-58
 800 030b C6       		.byte	-58
 801 030c C6       		.byte	-58
 802 030d 7C       		.byte	124
 803 030e 00       		.byte	0
 804 030f 00       		.byte	0
 805 0310 00       		.byte	0
 806 0311 00       		.byte	0
 807 0312 00       		.byte	0
 808 0313 C6       		.byte	-58
 809 0314 C6       		.byte	-58
 810 0315 C6       		.byte	-58
 811 0316 C6       		.byte	-58
 812 0317 C6       		.byte	-58
 813 0318 C6       		.byte	-58
 814 0319 6C       		.byte	108
 815 031a 38       		.byte	56
 816 031b 10       		.byte	16
 817 031c 00       		.byte	0
 818 031d 00       		.byte	0
 819 031e 00       		.byte	0
 820 031f 00       		.byte	0
 821 0320 00       		.byte	0
 822 0321 C6       		.byte	-58
 823 0322 C6       		.byte	-58
 824 0323 C6       		.byte	-58
 825 0324 C6       		.byte	-58
 826 0325 D6       		.byte	-42
 827 0326 D6       		.byte	-42
 828 0327 FE       		.byte	-2
 829 0328 6C       		.byte	108
 830 0329 6C       		.byte	108
 831 032a 00       		.byte	0
 832 032b 00       		.byte	0
 833 032c 00       		.byte	0
 834 032d 00       		.byte	0
 835 032e 00       		.byte	0
 836 032f C6       		.byte	-58
 837 0330 C6       		.byte	-58
 838 0331 C6       		.byte	-58
 839 0332 7C       		.byte	124
 840 0333 38       		.byte	56
 841 0334 7C       		.byte	124
 842 0335 C6       		.byte	-58
 843 0336 C6       		.byte	-58
 844 0337 C6       		.byte	-58
 845 0338 00       		.byte	0
 846 0339 00       		.byte	0
 847 033a 00       		.byte	0
 848 033b 00       		.byte	0
 849 033c 00       		.byte	0
 850 033d 66       		.byte	102
 851 033e 66       		.byte	102
 852 033f 66       		.byte	102
 853 0340 66       		.byte	102
 854 0341 3C       		.byte	60
 855 0342 18       		.byte	24
ARM GAS  C:\Users\embedded\AppData\Local\Temp\ccbbimIb.s 			page 16


 856 0343 18       		.byte	24
 857 0344 18       		.byte	24
 858 0345 3C       		.byte	60
 859 0346 00       		.byte	0
 860 0347 00       		.byte	0
 861 0348 00       		.byte	0
 862 0349 00       		.byte	0
 863 034a 00       		.byte	0
 864 034b FE       		.byte	-2
 865 034c C6       		.byte	-58
 866 034d 8C       		.byte	-116
 867 034e 18       		.byte	24
 868 034f 30       		.byte	48
 869 0350 60       		.byte	96
 870 0351 C2       		.byte	-62
 871 0352 C6       		.byte	-58
 872 0353 FE       		.byte	-2
 873 0354 00       		.byte	0
 874 0355 00       		.byte	0
 875 0356 00       		.byte	0
 876 0357 00       		.byte	0
 877 0358 00       		.byte	0
 878 0359 3C       		.byte	60
 879 035a 30       		.byte	48
 880 035b 30       		.byte	48
 881 035c 30       		.byte	48
 882 035d 30       		.byte	48
 883 035e 30       		.byte	48
 884 035f 30       		.byte	48
 885 0360 30       		.byte	48
 886 0361 3C       		.byte	60
 887 0362 00       		.byte	0
 888 0363 00       		.byte	0
 889 0364 00       		.byte	0
 890 0365 00       		.byte	0
 891 0366 00       		.byte	0
 892 0367 80       		.byte	-128
 893 0368 C0       		.byte	-64
 894 0369 E0       		.byte	-32
 895 036a 70       		.byte	112
 896 036b 38       		.byte	56
 897 036c 1C       		.byte	28
 898 036d 0E       		.byte	14
 899 036e 06       		.byte	6
 900 036f 02       		.byte	2
 901 0370 00       		.byte	0
 902 0371 00       		.byte	0
 903 0372 00       		.byte	0
 904 0373 00       		.byte	0
 905 0374 00       		.byte	0
 906 0375 3C       		.byte	60
 907 0376 0C       		.byte	12
 908 0377 0C       		.byte	12
 909 0378 0C       		.byte	12
 910 0379 0C       		.byte	12
 911 037a 0C       		.byte	12
 912 037b 0C       		.byte	12
ARM GAS  C:\Users\embedded\AppData\Local\Temp\ccbbimIb.s 			page 17


 913 037c 0C       		.byte	12
 914 037d 3C       		.byte	60
 915 037e 00       		.byte	0
 916 037f 00       		.byte	0
 917 0380 10       		.byte	16
 918 0381 38       		.byte	56
 919 0382 6C       		.byte	108
 920 0383 C6       		.byte	-58
 921 0384 00       		.byte	0
 922 0385 00       		.byte	0
 923 0386 00       		.byte	0
 924 0387 00       		.byte	0
 925 0388 00       		.byte	0
 926 0389 00       		.byte	0
 927 038a 00       		.byte	0
 928 038b 00       		.byte	0
 929 038c 00       		.byte	0
 930 038d 00       		.byte	0
 931 038e 00       		.byte	0
 932 038f 00       		.byte	0
 933 0390 00       		.byte	0
 934 0391 00       		.byte	0
 935 0392 00       		.byte	0
 936 0393 00       		.byte	0
 937 0394 00       		.byte	0
 938 0395 00       		.byte	0
 939 0396 00       		.byte	0
 940 0397 00       		.byte	0
 941 0398 00       		.byte	0
 942 0399 00       		.byte	0
 943 039a 00       		.byte	0
 944 039b FF       		.byte	-1
 945 039c 00       		.byte	0
 946 039d 30       		.byte	48
 947 039e 18       		.byte	24
 948 039f 0C       		.byte	12
 949 03a0 00       		.byte	0
 950 03a1 00       		.byte	0
 951 03a2 00       		.byte	0
 952 03a3 00       		.byte	0
 953 03a4 00       		.byte	0
 954 03a5 00       		.byte	0
 955 03a6 00       		.byte	0
 956 03a7 00       		.byte	0
 957 03a8 00       		.byte	0
 958 03a9 00       		.byte	0
 959 03aa 00       		.byte	0
 960 03ab 00       		.byte	0
 961 03ac 00       		.byte	0
 962 03ad 00       		.byte	0
 963 03ae 00       		.byte	0
 964 03af 00       		.byte	0
 965 03b0 78       		.byte	120
 966 03b1 0C       		.byte	12
 967 03b2 7C       		.byte	124
 968 03b3 CC       		.byte	-52
 969 03b4 CC       		.byte	-52
ARM GAS  C:\Users\embedded\AppData\Local\Temp\ccbbimIb.s 			page 18


 970 03b5 76       		.byte	118
 971 03b6 00       		.byte	0
 972 03b7 00       		.byte	0
 973 03b8 00       		.byte	0
 974 03b9 00       		.byte	0
 975 03ba 00       		.byte	0
 976 03bb E0       		.byte	-32
 977 03bc 60       		.byte	96
 978 03bd 60       		.byte	96
 979 03be 78       		.byte	120
 980 03bf 6C       		.byte	108
 981 03c0 66       		.byte	102
 982 03c1 66       		.byte	102
 983 03c2 66       		.byte	102
 984 03c3 7C       		.byte	124
 985 03c4 00       		.byte	0
 986 03c5 00       		.byte	0
 987 03c6 00       		.byte	0
 988 03c7 00       		.byte	0
 989 03c8 00       		.byte	0
 990 03c9 00       		.byte	0
 991 03ca 00       		.byte	0
 992 03cb 00       		.byte	0
 993 03cc 7C       		.byte	124
 994 03cd C6       		.byte	-58
 995 03ce C0       		.byte	-64
 996 03cf C0       		.byte	-64
 997 03d0 C6       		.byte	-58
 998 03d1 7C       		.byte	124
 999 03d2 00       		.byte	0
 1000 03d3 00       		.byte	0
 1001 03d4 00       		.byte	0
 1002 03d5 00       		.byte	0
 1003 03d6 00       		.byte	0
 1004 03d7 1C       		.byte	28
 1005 03d8 0C       		.byte	12
 1006 03d9 0C       		.byte	12
 1007 03da 3C       		.byte	60
 1008 03db 6C       		.byte	108
 1009 03dc CC       		.byte	-52
 1010 03dd CC       		.byte	-52
 1011 03de CC       		.byte	-52
 1012 03df 76       		.byte	118
 1013 03e0 00       		.byte	0
 1014 03e1 00       		.byte	0
 1015 03e2 00       		.byte	0
 1016 03e3 00       		.byte	0
 1017 03e4 00       		.byte	0
 1018 03e5 00       		.byte	0
 1019 03e6 00       		.byte	0
 1020 03e7 00       		.byte	0
 1021 03e8 7C       		.byte	124
 1022 03e9 C6       		.byte	-58
 1023 03ea FE       		.byte	-2
 1024 03eb C0       		.byte	-64
 1025 03ec C6       		.byte	-58
 1026 03ed 7C       		.byte	124
ARM GAS  C:\Users\embedded\AppData\Local\Temp\ccbbimIb.s 			page 19


 1027 03ee 00       		.byte	0
 1028 03ef 00       		.byte	0
 1029 03f0 00       		.byte	0
 1030 03f1 00       		.byte	0
 1031 03f2 00       		.byte	0
 1032 03f3 1C       		.byte	28
 1033 03f4 36       		.byte	54
 1034 03f5 32       		.byte	50
 1035 03f6 30       		.byte	48
 1036 03f7 7C       		.byte	124
 1037 03f8 30       		.byte	48
 1038 03f9 30       		.byte	48
 1039 03fa 30       		.byte	48
 1040 03fb 78       		.byte	120
 1041 03fc 00       		.byte	0
 1042 03fd 00       		.byte	0
 1043 03fe 00       		.byte	0
 1044 03ff 00       		.byte	0
 1045 0400 00       		.byte	0
 1046 0401 00       		.byte	0
 1047 0402 00       		.byte	0
 1048 0403 00       		.byte	0
 1049 0404 76       		.byte	118
 1050 0405 CC       		.byte	-52
 1051 0406 CC       		.byte	-52
 1052 0407 CC       		.byte	-52
 1053 0408 7C       		.byte	124
 1054 0409 0C       		.byte	12
 1055 040a CC       		.byte	-52
 1056 040b 78       		.byte	120
 1057 040c 00       		.byte	0
 1058 040d 00       		.byte	0
 1059 040e 00       		.byte	0
 1060 040f E0       		.byte	-32
 1061 0410 60       		.byte	96
 1062 0411 60       		.byte	96
 1063 0412 6C       		.byte	108
 1064 0413 76       		.byte	118
 1065 0414 66       		.byte	102
 1066 0415 66       		.byte	102
 1067 0416 66       		.byte	102
 1068 0417 E6       		.byte	-26
 1069 0418 00       		.byte	0
 1070 0419 00       		.byte	0
 1071 041a 00       		.byte	0
 1072 041b 00       		.byte	0
 1073 041c 00       		.byte	0
 1074 041d 18       		.byte	24
 1075 041e 18       		.byte	24
 1076 041f 00       		.byte	0
 1077 0420 38       		.byte	56
 1078 0421 18       		.byte	24
 1079 0422 18       		.byte	24
 1080 0423 18       		.byte	24
 1081 0424 18       		.byte	24
 1082 0425 3C       		.byte	60
 1083 0426 00       		.byte	0
ARM GAS  C:\Users\embedded\AppData\Local\Temp\ccbbimIb.s 			page 20


 1084 0427 00       		.byte	0
 1085 0428 00       		.byte	0
 1086 0429 00       		.byte	0
 1087 042a 00       		.byte	0
 1088 042b 06       		.byte	6
 1089 042c 06       		.byte	6
 1090 042d 00       		.byte	0
 1091 042e 0E       		.byte	14
 1092 042f 06       		.byte	6
 1093 0430 06       		.byte	6
 1094 0431 06       		.byte	6
 1095 0432 06       		.byte	6
 1096 0433 66       		.byte	102
 1097 0434 66       		.byte	102
 1098 0435 3C       		.byte	60
 1099 0436 00       		.byte	0
 1100 0437 00       		.byte	0
 1101 0438 00       		.byte	0
 1102 0439 E0       		.byte	-32
 1103 043a 60       		.byte	96
 1104 043b 60       		.byte	96
 1105 043c 66       		.byte	102
 1106 043d 6C       		.byte	108
 1107 043e 78       		.byte	120
 1108 043f 6C       		.byte	108
 1109 0440 66       		.byte	102
 1110 0441 E6       		.byte	-26
 1111 0442 00       		.byte	0
 1112 0443 00       		.byte	0
 1113 0444 00       		.byte	0
 1114 0445 00       		.byte	0
 1115 0446 00       		.byte	0
 1116 0447 38       		.byte	56
 1117 0448 18       		.byte	24
 1118 0449 18       		.byte	24
 1119 044a 18       		.byte	24
 1120 044b 18       		.byte	24
 1121 044c 18       		.byte	24
 1122 044d 18       		.byte	24
 1123 044e 18       		.byte	24
 1124 044f 3C       		.byte	60
 1125 0450 00       		.byte	0
 1126 0451 00       		.byte	0
 1127 0452 00       		.byte	0
 1128 0453 00       		.byte	0
 1129 0454 00       		.byte	0
 1130 0455 00       		.byte	0
 1131 0456 00       		.byte	0
 1132 0457 00       		.byte	0
 1133 0458 EC       		.byte	-20
 1134 0459 FE       		.byte	-2
 1135 045a D6       		.byte	-42
 1136 045b D6       		.byte	-42
 1137 045c D6       		.byte	-42
 1138 045d D6       		.byte	-42
 1139 045e 00       		.byte	0
 1140 045f 00       		.byte	0
ARM GAS  C:\Users\embedded\AppData\Local\Temp\ccbbimIb.s 			page 21


 1141 0460 00       		.byte	0
 1142 0461 00       		.byte	0
 1143 0462 00       		.byte	0
 1144 0463 00       		.byte	0
 1145 0464 00       		.byte	0
 1146 0465 00       		.byte	0
 1147 0466 DC       		.byte	-36
 1148 0467 66       		.byte	102
 1149 0468 66       		.byte	102
 1150 0469 66       		.byte	102
 1151 046a 66       		.byte	102
 1152 046b 66       		.byte	102
 1153 046c 00       		.byte	0
 1154 046d 00       		.byte	0
 1155 046e 00       		.byte	0
 1156 046f 00       		.byte	0
 1157 0470 00       		.byte	0
 1158 0471 00       		.byte	0
 1159 0472 00       		.byte	0
 1160 0473 00       		.byte	0
 1161 0474 7C       		.byte	124
 1162 0475 C6       		.byte	-58
 1163 0476 C6       		.byte	-58
 1164 0477 C6       		.byte	-58
 1165 0478 C6       		.byte	-58
 1166 0479 7C       		.byte	124
 1167 047a 00       		.byte	0
 1168 047b 00       		.byte	0
 1169 047c 00       		.byte	0
 1170 047d 00       		.byte	0
 1171 047e 00       		.byte	0
 1172 047f 00       		.byte	0
 1173 0480 00       		.byte	0
 1174 0481 00       		.byte	0
 1175 0482 DC       		.byte	-36
 1176 0483 66       		.byte	102
 1177 0484 66       		.byte	102
 1178 0485 66       		.byte	102
 1179 0486 7C       		.byte	124
 1180 0487 60       		.byte	96
 1181 0488 60       		.byte	96
 1182 0489 F0       		.byte	-16
 1183 048a 00       		.byte	0
 1184 048b 00       		.byte	0
 1185 048c 00       		.byte	0
 1186 048d 00       		.byte	0
 1187 048e 00       		.byte	0
 1188 048f 00       		.byte	0
 1189 0490 76       		.byte	118
 1190 0491 CC       		.byte	-52
 1191 0492 CC       		.byte	-52
 1192 0493 CC       		.byte	-52
 1193 0494 7C       		.byte	124
 1194 0495 0C       		.byte	12
 1195 0496 0C       		.byte	12
 1196 0497 1E       		.byte	30
 1197 0498 00       		.byte	0
ARM GAS  C:\Users\embedded\AppData\Local\Temp\ccbbimIb.s 			page 22


 1198 0499 00       		.byte	0
 1199 049a 00       		.byte	0
 1200 049b 00       		.byte	0
 1201 049c 00       		.byte	0
 1202 049d 00       		.byte	0
 1203 049e DC       		.byte	-36
 1204 049f 76       		.byte	118
 1205 04a0 66       		.byte	102
 1206 04a1 60       		.byte	96
 1207 04a2 60       		.byte	96
 1208 04a3 F0       		.byte	-16
 1209 04a4 00       		.byte	0
 1210 04a5 00       		.byte	0
 1211 04a6 00       		.byte	0
 1212 04a7 00       		.byte	0
 1213 04a8 00       		.byte	0
 1214 04a9 00       		.byte	0
 1215 04aa 00       		.byte	0
 1216 04ab 00       		.byte	0
 1217 04ac 7C       		.byte	124
 1218 04ad C6       		.byte	-58
 1219 04ae 70       		.byte	112
 1220 04af 1C       		.byte	28
 1221 04b0 C6       		.byte	-58
 1222 04b1 7C       		.byte	124
 1223 04b2 00       		.byte	0
 1224 04b3 00       		.byte	0
 1225 04b4 00       		.byte	0
 1226 04b5 00       		.byte	0
 1227 04b6 00       		.byte	0
 1228 04b7 10       		.byte	16
 1229 04b8 30       		.byte	48
 1230 04b9 30       		.byte	48
 1231 04ba FC       		.byte	-4
 1232 04bb 30       		.byte	48
 1233 04bc 30       		.byte	48
 1234 04bd 30       		.byte	48
 1235 04be 36       		.byte	54
 1236 04bf 1C       		.byte	28
 1237 04c0 00       		.byte	0
 1238 04c1 00       		.byte	0
 1239 04c2 00       		.byte	0
 1240 04c3 00       		.byte	0
 1241 04c4 00       		.byte	0
 1242 04c5 00       		.byte	0
 1243 04c6 00       		.byte	0
 1244 04c7 00       		.byte	0
 1245 04c8 CC       		.byte	-52
 1246 04c9 CC       		.byte	-52
 1247 04ca CC       		.byte	-52
 1248 04cb CC       		.byte	-52
 1249 04cc CC       		.byte	-52
 1250 04cd 76       		.byte	118
 1251 04ce 00       		.byte	0
 1252 04cf 00       		.byte	0
 1253 04d0 00       		.byte	0
 1254 04d1 00       		.byte	0
ARM GAS  C:\Users\embedded\AppData\Local\Temp\ccbbimIb.s 			page 23


 1255 04d2 00       		.byte	0
 1256 04d3 00       		.byte	0
 1257 04d4 00       		.byte	0
 1258 04d5 00       		.byte	0
 1259 04d6 C6       		.byte	-58
 1260 04d7 C6       		.byte	-58
 1261 04d8 C6       		.byte	-58
 1262 04d9 6C       		.byte	108
 1263 04da 38       		.byte	56
 1264 04db 10       		.byte	16
 1265 04dc 00       		.byte	0
 1266 04dd 00       		.byte	0
 1267 04de 00       		.byte	0
 1268 04df 00       		.byte	0
 1269 04e0 00       		.byte	0
 1270 04e1 00       		.byte	0
 1271 04e2 00       		.byte	0
 1272 04e3 00       		.byte	0
 1273 04e4 C6       		.byte	-58
 1274 04e5 C6       		.byte	-58
 1275 04e6 D6       		.byte	-42
 1276 04e7 D6       		.byte	-42
 1277 04e8 FE       		.byte	-2
 1278 04e9 6C       		.byte	108
 1279 04ea 00       		.byte	0
 1280 04eb 00       		.byte	0
 1281 04ec 00       		.byte	0
 1282 04ed 00       		.byte	0
 1283 04ee 00       		.byte	0
 1284 04ef 00       		.byte	0
 1285 04f0 00       		.byte	0
 1286 04f1 00       		.byte	0
 1287 04f2 C6       		.byte	-58
 1288 04f3 6C       		.byte	108
 1289 04f4 38       		.byte	56
 1290 04f5 38       		.byte	56
 1291 04f6 6C       		.byte	108
 1292 04f7 C6       		.byte	-58
 1293 04f8 00       		.byte	0
 1294 04f9 00       		.byte	0
 1295 04fa 00       		.byte	0
 1296 04fb 00       		.byte	0
 1297 04fc 00       		.byte	0
 1298 04fd 00       		.byte	0
 1299 04fe 00       		.byte	0
 1300 04ff 00       		.byte	0
 1301 0500 C6       		.byte	-58
 1302 0501 C6       		.byte	-58
 1303 0502 C6       		.byte	-58
 1304 0503 C6       		.byte	-58
 1305 0504 7E       		.byte	126
 1306 0505 06       		.byte	6
 1307 0506 0C       		.byte	12
 1308 0507 78       		.byte	120
 1309 0508 00       		.byte	0
 1310 0509 00       		.byte	0
 1311 050a 00       		.byte	0
ARM GAS  C:\Users\embedded\AppData\Local\Temp\ccbbimIb.s 			page 24


 1312 050b 00       		.byte	0
 1313 050c 00       		.byte	0
 1314 050d 00       		.byte	0
 1315 050e FE       		.byte	-2
 1316 050f CC       		.byte	-52
 1317 0510 18       		.byte	24
 1318 0511 30       		.byte	48
 1319 0512 66       		.byte	102
 1320 0513 FE       		.byte	-2
 1321 0514 00       		.byte	0
 1322 0515 00       		.byte	0
 1323 0516 00       		.byte	0
 1324 0517 00       		.byte	0
 1325 0518 00       		.byte	0
 1326 0519 0E       		.byte	14
 1327 051a 18       		.byte	24
 1328 051b 18       		.byte	24
 1329 051c 18       		.byte	24
 1330 051d 70       		.byte	112
 1331 051e 18       		.byte	24
 1332 051f 18       		.byte	24
 1333 0520 18       		.byte	24
 1334 0521 0E       		.byte	14
 1335 0522 00       		.byte	0
 1336 0523 00       		.byte	0
 1337 0524 00       		.byte	0
 1338 0525 00       		.byte	0
 1339 0526 00       		.byte	0
 1340 0527 18       		.byte	24
 1341 0528 18       		.byte	24
 1342 0529 18       		.byte	24
 1343 052a 18       		.byte	24
 1344 052b 18       		.byte	24
 1345 052c 18       		.byte	24
 1346 052d 18       		.byte	24
 1347 052e 18       		.byte	24
 1348 052f 18       		.byte	24
 1349 0530 00       		.byte	0
 1350 0531 00       		.byte	0
 1351 0532 00       		.byte	0
 1352 0533 00       		.byte	0
 1353 0534 00       		.byte	0
 1354 0535 70       		.byte	112
 1355 0536 18       		.byte	24
 1356 0537 18       		.byte	24
 1357 0538 18       		.byte	24
 1358 0539 0E       		.byte	14
 1359 053a 18       		.byte	24
 1360 053b 18       		.byte	24
 1361 053c 18       		.byte	24
 1362 053d 70       		.byte	112
 1363 053e 00       		.byte	0
 1364 053f 00       		.byte	0
 1365 0540 00       		.byte	0
 1366 0541 76       		.byte	118
 1367 0542 DC       		.byte	-36
 1368 0543 00       		.byte	0
ARM GAS  C:\Users\embedded\AppData\Local\Temp\ccbbimIb.s 			page 25


 1369 0544 00       		.byte	0
 1370 0545 00       		.byte	0
 1371 0546 00       		.byte	0
 1372 0547 00       		.byte	0
 1373 0548 00       		.byte	0
 1374 0549 00       		.byte	0
 1375 054a 00       		.byte	0
 1376 054b 00       		.byte	0
 1377 054c 00       		.byte	0
 1378 054d 00       		.byte	0
 1379 054e 00       		.byte	0
 1380 054f 00       		.byte	0
 1381 0550 00       		.byte	0
 1382 0551 00       		.byte	0
 1383 0552 00       		.byte	0
 1384 0553 10       		.byte	16
 1385 0554 38       		.byte	56
 1386 0555 6C       		.byte	108
 1387 0556 C6       		.byte	-58
 1388 0557 C6       		.byte	-58
 1389 0558 FE       		.byte	-2
 1390 0559 00       		.byte	0
 1391 055a 00       		.byte	0
 1392 055b 00       		.byte	0
 1393              		.bss
 1394              	lcd_x:
 1395 0000 00       		.space	1
 1396              		.size	lcd_x, 1
 1397              	lcd_y:
 1398 0001 00       		.space	1
 1399              		.size	lcd_y, 1
 1400              	bkgColor:
 1401 0002 00       		.space	1
 1402              		.size	bkgColor, 1
 1403              	textColor:
 1404 0003 00       		.space	1
 1405              		.size	textColor, 1
 1406              		.text
 1407              		.align	1
 1408              		.global	lcdInit
 1409              		.syntax unified
 1410              		.code	16
 1411              		.thumb_func
 1412              		.fpu softvfp
 1413              		.type	lcdInit, %function
 1414              	lcdInit:
 1415              	.LFB0:
 1416              		.file 1 "lcd.c"
   1:lcd.c         **** /******************************************************************************
   2:lcd.c         ****  *
   3:lcd.c         ****  * Copyright:
   4:lcd.c         ****  *    (C) 2006 Embedded Artists AB
   5:lcd.c         ****  *
   6:lcd.c         ****  * File:
   7:lcd.c         ****  *    lcd.c
   8:lcd.c         ****  *
   9:lcd.c         ****  * Description:
ARM GAS  C:\Users\embedded\AppData\Local\Temp\ccbbimIb.s 			page 26


  10:lcd.c         ****  *    Implements routines for the LCD.
  11:lcd.c         ****  *
  12:lcd.c         ****  *****************************************************************************/
  13:lcd.c         **** 
  14:lcd.c         ****  /* Includes */
  15:lcd.c         **** #include "general.h"
  16:lcd.c         **** //#include "osapi.h"
  17:lcd.c         **** #include "lcd.h"
  18:lcd.c         **** #include "ascii.h"
  19:lcd.c         **** #include "lcd_hw.h"
  20:lcd.c         **** #include "functionals.h"
  21:lcd.c         **** 
  22:lcd.c         **** 
  23:lcd.c         **** /* Typedefs and defines */
  24:lcd.c         **** #define LCD_CMD_SWRESET   0x01
  25:lcd.c         **** #define LCD_CMD_BSTRON    0x03
  26:lcd.c         **** #define LCD_CMD_SLEEPIN   0x10
  27:lcd.c         **** #define LCD_CMD_SLEEPOUT  0x11
  28:lcd.c         **** #define LCD_CMD_INVON     0x21
  29:lcd.c         **** #define LCD_CMD_SETCON    0x25
  30:lcd.c         **** #define LCD_CMD_DISPON    0x29
  31:lcd.c         **** #define LCD_CMD_CASET     0x2A
  32:lcd.c         **** #define LCD_CMD_PASET     0x2B
  33:lcd.c         **** #define LCD_CMD_RAMWR     0x2C
  34:lcd.c         **** #define LCD_CMD_RGBSET    0x2D
  35:lcd.c         **** #define LCD_CMD_MADCTL    0x36
  36:lcd.c         **** #define LCD_CMD_COLMOD    0x3A
  37:lcd.c         **** 
  38:lcd.c         **** #define MADCTL_HORIZ      0x48
  39:lcd.c         **** #define MADCTL_VERT       0x68
  40:lcd.c         **** 
  41:lcd.c         ****  /* External variables */
  42:lcd.c         **** extern const tU8 charMap[1372];
  43:lcd.c         **** 
  44:lcd.c         **** 
  45:lcd.c         ****  /* Local variables */
  46:lcd.c         **** static tU8 lcd_x;
  47:lcd.c         **** static tU8 lcd_y;
  48:lcd.c         **** static tU8 bkgColor;
  49:lcd.c         **** static tU8 textColor;
  50:lcd.c         **** 
  51:lcd.c         **** 
  52:lcd.c         **** /* Local declarations */
  53:lcd.c         **** static void lcdWindow1(tU8 xp, tU8 yp, tU8 xe, tU8 ye);
  54:lcd.c         **** static void lcdData(tU8 data);
  55:lcd.c         **** static void lcdContrast(tU8 contr);
  56:lcd.c         **** static void lcdWindow(tU8 xp, tU8 yp, tU8 xe, tU8 ye);
  57:lcd.c         **** 
  58:lcd.c         **** 
  59:lcd.c         **** /*
  60:lcd.c         ****  *  @brief			Funckja inicjalizujaca SPI oraz poprawnie uruchamiajaca wyswietlacz LCD.
  61:lcd.c         ****  *
  62:lcd.c         ****  *  @Description	Funkcja majaca na celu ustawienie magistrali SPI oraz poprawna konfiguracje wyswie
  63:lcd.c         ****  *                  poprawnego wlaczenia.
  64:lcd.c         ****  *
  65:lcd.c         ****  *  @param 			brak
  66:lcd.c         ****  *
ARM GAS  C:\Users\embedded\AppData\Local\Temp\ccbbimIb.s 			page 27


  67:lcd.c         ****  *  @returns  		nic
  68:lcd.c         ****  *
  69:lcd.c         ****  *  @side effects	Modyfikacja ustawien rejestrow PINSEL0, SPI_SPCCR, SPI_SPCR
  70:lcd.c         ****  */
  71:lcd.c         **** void lcdInit(void)
  72:lcd.c         **** {
 1417              		.loc 1 72 0
 1418              		.cfi_startproc
 1419              		@ Function supports interworking.
 1420              		@ args = 0, pretend = 0, frame = 0
 1421              		@ frame_needed = 1, uses_anonymous_args = 0
 1422 0000 80B5     		push	{r7, lr}
 1423              	.LCFI0:
 1424              		.cfi_def_cfa_offset 8
 1425              		.cfi_offset 7, -8
 1426              		.cfi_offset 14, -4
 1427 0002 00AF     		add	r7, sp, #0
 1428              	.LCFI1:
 1429              		.cfi_def_cfa_register 7
  73:lcd.c         ****     bkgColor  = 0;
 1430              		.loc 1 73 0
 1431 0004 3D4B     		ldr	r3, .L2
 1432 0006 0022     		movs	r2, #0
 1433 0008 1A70     		strb	r2, [r3]
  74:lcd.c         ****     textColor = 0;
 1434              		.loc 1 74 0
 1435 000a 3D4B     		ldr	r3, .L2+4
 1436 000c 0022     		movs	r2, #0
 1437 000e 1A70     		strb	r2, [r3]
  75:lcd.c         ****     
  76:lcd.c         ****     //init SPI interface
  77:lcd.c         ****     initSpiForLcd();
 1438              		.loc 1 77 0
 1439 0010 FFF7FEFF 		bl	initSpiForLcd
  78:lcd.c         ****     
  79:lcd.c         ****     //select controller
  80:lcd.c         ****     selectLCD(TRUE);
 1440              		.loc 1 80 0
 1441 0014 0120     		movs	r0, #1
 1442 0016 FFF7FEFF 		bl	selectLCD
  81:lcd.c         ****     
  82:lcd.c         ****     lcdWrcmd(LCD_CMD_SWRESET);
 1443              		.loc 1 82 0
 1444 001a 0120     		movs	r0, #1
 1445 001c FFF7FEFF 		bl	lcdWrcmd
  83:lcd.c         ****     
  84:lcd.c         ****     delay_ms(1);
 1446              		.loc 1 84 0
 1447 0020 0120     		movs	r0, #1
 1448 0022 FFF7FEFF 		bl	delay_ms
  85:lcd.c         ****     lcdWrcmd(LCD_CMD_SLEEPOUT);
 1449              		.loc 1 85 0
 1450 0026 1120     		movs	r0, #17
 1451 0028 FFF7FEFF 		bl	lcdWrcmd
  86:lcd.c         ****     lcdWrcmd(LCD_CMD_DISPON);
 1452              		.loc 1 86 0
 1453 002c 2920     		movs	r0, #41
ARM GAS  C:\Users\embedded\AppData\Local\Temp\ccbbimIb.s 			page 28


 1454 002e FFF7FEFF 		bl	lcdWrcmd
  87:lcd.c         ****     lcdWrcmd(LCD_CMD_BSTRON);
 1455              		.loc 1 87 0
 1456 0032 0320     		movs	r0, #3
 1457 0034 FFF7FEFF 		bl	lcdWrcmd
  88:lcd.c         ****     delay_ms(1);
 1458              		.loc 1 88 0
 1459 0038 0120     		movs	r0, #1
 1460 003a FFF7FEFF 		bl	delay_ms
  89:lcd.c         ****     	
  90:lcd.c         ****     lcdWrcmd(LCD_CMD_MADCTL);   //Memory data acces control
 1461              		.loc 1 90 0
 1462 003e 3620     		movs	r0, #54
 1463 0040 FFF7FEFF 		bl	lcdWrcmd
  91:lcd.c         ****     lcdWrdata(MADCTL_HORIZ);    //X Mirror and BGR format
 1464              		.loc 1 91 0
 1465 0044 4820     		movs	r0, #72
 1466 0046 FFF7FEFF 		bl	lcdWrdata
  92:lcd.c         ****     lcdWrcmd(LCD_CMD_COLMOD);   //Colour mode
 1467              		.loc 1 92 0
 1468 004a 3A20     		movs	r0, #58
 1469 004c FFF7FEFF 		bl	lcdWrcmd
  93:lcd.c         ****     lcdWrdata(0x02);            //256 colour mode select
 1470              		.loc 1 93 0
 1471 0050 0220     		movs	r0, #2
 1472 0052 FFF7FEFF 		bl	lcdWrdata
  94:lcd.c         ****     lcdWrcmd(LCD_CMD_INVON);    //Non Invert mode
 1473              		.loc 1 94 0
 1474 0056 2120     		movs	r0, #33
 1475 0058 FFF7FEFF 		bl	lcdWrcmd
  95:lcd.c         ****     
  96:lcd.c         ****     lcdWrcmd(LCD_CMD_RGBSET);   //LUT write
 1476              		.loc 1 96 0
 1477 005c 2D20     		movs	r0, #45
 1478 005e FFF7FEFF 		bl	lcdWrcmd
  97:lcd.c         ****     lcdWrdata(0);               //Red
 1479              		.loc 1 97 0
 1480 0062 0020     		movs	r0, #0
 1481 0064 FFF7FEFF 		bl	lcdWrdata
  98:lcd.c         ****     lcdWrdata(2);
 1482              		.loc 1 98 0
 1483 0068 0220     		movs	r0, #2
 1484 006a FFF7FEFF 		bl	lcdWrdata
  99:lcd.c         ****     lcdWrdata(4);
 1485              		.loc 1 99 0
 1486 006e 0420     		movs	r0, #4
 1487 0070 FFF7FEFF 		bl	lcdWrdata
 100:lcd.c         ****     lcdWrdata(6);
 1488              		.loc 1 100 0
 1489 0074 0620     		movs	r0, #6
 1490 0076 FFF7FEFF 		bl	lcdWrdata
 101:lcd.c         ****     lcdWrdata(9);
 1491              		.loc 1 101 0
 1492 007a 0920     		movs	r0, #9
 1493 007c FFF7FEFF 		bl	lcdWrdata
 102:lcd.c         ****     lcdWrdata(11);
 1494              		.loc 1 102 0
ARM GAS  C:\Users\embedded\AppData\Local\Temp\ccbbimIb.s 			page 29


 1495 0080 0B20     		movs	r0, #11
 1496 0082 FFF7FEFF 		bl	lcdWrdata
 103:lcd.c         ****     lcdWrdata(13);
 1497              		.loc 1 103 0
 1498 0086 0D20     		movs	r0, #13
 1499 0088 FFF7FEFF 		bl	lcdWrdata
 104:lcd.c         ****     lcdWrdata(15);
 1500              		.loc 1 104 0
 1501 008c 0F20     		movs	r0, #15
 1502 008e FFF7FEFF 		bl	lcdWrdata
 105:lcd.c         ****     lcdWrdata(0);               //Green
 1503              		.loc 1 105 0
 1504 0092 0020     		movs	r0, #0
 1505 0094 FFF7FEFF 		bl	lcdWrdata
 106:lcd.c         ****     lcdWrdata(2);
 1506              		.loc 1 106 0
 1507 0098 0220     		movs	r0, #2
 1508 009a FFF7FEFF 		bl	lcdWrdata
 107:lcd.c         ****     lcdWrdata(4);
 1509              		.loc 1 107 0
 1510 009e 0420     		movs	r0, #4
 1511 00a0 FFF7FEFF 		bl	lcdWrdata
 108:lcd.c         ****     lcdWrdata(6);
 1512              		.loc 1 108 0
 1513 00a4 0620     		movs	r0, #6
 1514 00a6 FFF7FEFF 		bl	lcdWrdata
 109:lcd.c         ****     lcdWrdata(9);
 1515              		.loc 1 109 0
 1516 00aa 0920     		movs	r0, #9
 1517 00ac FFF7FEFF 		bl	lcdWrdata
 110:lcd.c         ****     lcdWrdata(11);
 1518              		.loc 1 110 0
 1519 00b0 0B20     		movs	r0, #11
 1520 00b2 FFF7FEFF 		bl	lcdWrdata
 111:lcd.c         ****     lcdWrdata(13);
 1521              		.loc 1 111 0
 1522 00b6 0D20     		movs	r0, #13
 1523 00b8 FFF7FEFF 		bl	lcdWrdata
 112:lcd.c         ****     lcdWrdata(15);
 1524              		.loc 1 112 0
 1525 00bc 0F20     		movs	r0, #15
 1526 00be FFF7FEFF 		bl	lcdWrdata
 113:lcd.c         ****     lcdWrdata(0);               //Blue
 1527              		.loc 1 113 0
 1528 00c2 0020     		movs	r0, #0
 1529 00c4 FFF7FEFF 		bl	lcdWrdata
 114:lcd.c         ****     lcdWrdata(6);
 1530              		.loc 1 114 0
 1531 00c8 0620     		movs	r0, #6
 1532 00ca FFF7FEFF 		bl	lcdWrdata
 115:lcd.c         ****     lcdWrdata(10);
 1533              		.loc 1 115 0
 1534 00ce 0A20     		movs	r0, #10
 1535 00d0 FFF7FEFF 		bl	lcdWrdata
 116:lcd.c         ****     lcdWrdata(15);
 1536              		.loc 1 116 0
 1537 00d4 0F20     		movs	r0, #15
ARM GAS  C:\Users\embedded\AppData\Local\Temp\ccbbimIb.s 			page 30


 1538 00d6 FFF7FEFF 		bl	lcdWrdata
 117:lcd.c         ****     
 118:lcd.c         ****     //deselect controller
 119:lcd.c         ****     selectLCD(FALSE);
 1539              		.loc 1 119 0
 1540 00da 0020     		movs	r0, #0
 1541 00dc FFF7FEFF 		bl	selectLCD
 120:lcd.c         ****     
 121:lcd.c         ****     lcdContrast(56);
 1542              		.loc 1 121 0
 1543 00e0 3820     		movs	r0, #56
 1544 00e2 00F0ADF8 		bl	lcdContrast
 122:lcd.c         ****     
 123:lcd.c         ****     lcdClrscr();
 1545              		.loc 1 123 0
 1546 00e6 FFF7FEFF 		bl	lcdClrscr
 124:lcd.c         ****     delay_ms(1);
 1547              		.loc 1 124 0
 1548 00ea 0120     		movs	r0, #1
 1549 00ec FFF7FEFF 		bl	delay_ms
 125:lcd.c         ****     
 126:lcd.c         **** }
 1550              		.loc 1 126 0
 1551 00f0 C046     		nop
 1552 00f2 BD46     		mov	sp, r7
 1553              		@ sp needed
 1554 00f4 80BC     		pop	{r7}
 1555 00f6 01BC     		pop	{r0}
 1556 00f8 0047     		bx	r0
 1557              	.L3:
 1558 00fa C046     		.align	2
 1559              	.L2:
 1560 00fc 02000000 		.word	bkgColor
 1561 0100 03000000 		.word	textColor
 1562              		.cfi_endproc
 1563              	.LFE0:
 1564              		.size	lcdInit, .-lcdInit
 1565              		.align	1
 1566              		.global	lcdClrscr
 1567              		.syntax unified
 1568              		.code	16
 1569              		.thumb_func
 1570              		.fpu softvfp
 1571              		.type	lcdClrscr, %function
 1572              	lcdClrscr:
 1573              	.LFB1:
 127:lcd.c         **** 
 128:lcd.c         **** /*
 129:lcd.c         ****  *  @brief			Funkcja odpowiedzialna za wyczyszczenie ekranu kolorem tla.
 130:lcd.c         ****  *
 131:lcd.c         ****  *  @Description	Funkcja odpowiedzialna za wyczyszczenie ekranu kolorem tla.
 132:lcd.c         ****  *
 133:lcd.c         ****  *  @param 			brak
 134:lcd.c         ****  *
 135:lcd.c         ****  *  @returns  		nic
 136:lcd.c         ****  *
 137:lcd.c         ****  *  @side effects	Modyfikacja ustawien rejestrow PINSEL0, SPI_SPCCR, SPI_SPCR
ARM GAS  C:\Users\embedded\AppData\Local\Temp\ccbbimIb.s 			page 31


 138:lcd.c         ****  */
 139:lcd.c         **** void lcdClrscr(void)
 140:lcd.c         **** {
 1574              		.loc 1 140 0
 1575              		.cfi_startproc
 1576              		@ Function supports interworking.
 1577              		@ args = 0, pretend = 0, frame = 8
 1578              		@ frame_needed = 1, uses_anonymous_args = 0
 1579 0104 80B5     		push	{r7, lr}
 1580              	.LCFI2:
 1581              		.cfi_def_cfa_offset 8
 1582              		.cfi_offset 7, -8
 1583              		.cfi_offset 14, -4
 1584 0106 82B0     		sub	sp, sp, #8
 1585              	.LCFI3:
 1586              		.cfi_def_cfa_offset 16
 1587 0108 00AF     		add	r7, sp, #0
 1588              	.LCFI4:
 1589              		.cfi_def_cfa_register 7
 141:lcd.c         ****     tU32 i;
 142:lcd.c         ****     
 143:lcd.c         ****     lcd_x = 0;
 1590              		.loc 1 143 0
 1591 010a 154B     		ldr	r3, .L7
 1592 010c 0022     		movs	r2, #0
 1593 010e 1A70     		strb	r2, [r3]
 144:lcd.c         ****     lcd_y = 0;
 1594              		.loc 1 144 0
 1595 0110 144B     		ldr	r3, .L7+4
 1596 0112 0022     		movs	r2, #0
 1597 0114 1A70     		strb	r2, [r3]
 145:lcd.c         ****     
 146:lcd.c         ****     //select controller
 147:lcd.c         ****     selectLCD(TRUE);
 1598              		.loc 1 147 0
 1599 0116 0120     		movs	r0, #1
 1600 0118 FFF7FEFF 		bl	selectLCD
 148:lcd.c         ****     
 149:lcd.c         ****     lcdWindow1(255,255,128,128);
 1601              		.loc 1 149 0
 1602 011c 8023     		movs	r3, #128
 1603 011e 8022     		movs	r2, #128
 1604 0120 FF21     		movs	r1, #255
 1605 0122 FF20     		movs	r0, #255
 1606 0124 00F0EAFA 		bl	lcdWindow1
 150:lcd.c         ****     lcdWrcmd(LCD_CMD_RAMWR);    //write memory
 1607              		.loc 1 150 0
 1608 0128 2C20     		movs	r0, #44
 1609 012a FFF7FEFF 		bl	lcdWrcmd
 151:lcd.c         ****     
 152:lcd.c         ****     for(i=0; i < 16900u; i++)
 1610              		.loc 1 152 0
 1611 012e 0023     		movs	r3, #0
 1612 0130 7B60     		str	r3, [r7, #4]
 1613 0132 07E0     		b	.L5
 1614              	.L6:
 153:lcd.c         ****     {
ARM GAS  C:\Users\embedded\AppData\Local\Temp\ccbbimIb.s 			page 32


 154:lcd.c         ****         //lcdWrdata(0x00);
 155:lcd.c         ****         lcdWrdata(bkgColor);
 1615              		.loc 1 155 0 discriminator 3
 1616 0134 0C4B     		ldr	r3, .L7+8
 1617 0136 1B78     		ldrb	r3, [r3]
 1618 0138 1800     		movs	r0, r3
 1619 013a FFF7FEFF 		bl	lcdWrdata
 152:lcd.c         ****     {
 1620              		.loc 1 152 0 discriminator 3
 1621 013e 7B68     		ldr	r3, [r7, #4]
 1622 0140 0133     		adds	r3, r3, #1
 1623 0142 7B60     		str	r3, [r7, #4]
 1624              	.L5:
 152:lcd.c         ****     {
 1625              		.loc 1 152 0 is_stmt 0 discriminator 1
 1626 0144 7B68     		ldr	r3, [r7, #4]
 1627 0146 094A     		ldr	r2, .L7+12
 1628 0148 9342     		cmp	r3, r2
 1629 014a F3D9     		bls	.L6
 156:lcd.c         ****     }
 157:lcd.c         ****     
 158:lcd.c         ****     //deselect controller
 159:lcd.c         ****     selectLCD(FALSE);
 1630              		.loc 1 159 0 is_stmt 1
 1631 014c 0020     		movs	r0, #0
 1632 014e FFF7FEFF 		bl	selectLCD
 160:lcd.c         **** }
 1633              		.loc 1 160 0
 1634 0152 C046     		nop
 1635 0154 BD46     		mov	sp, r7
 1636 0156 02B0     		add	sp, sp, #8
 1637              		@ sp needed
 1638 0158 80BC     		pop	{r7}
 1639 015a 01BC     		pop	{r0}
 1640 015c 0047     		bx	r0
 1641              	.L8:
 1642 015e C046     		.align	2
 1643              	.L7:
 1644 0160 00000000 		.word	lcd_x
 1645 0164 01000000 		.word	lcd_y
 1646 0168 02000000 		.word	bkgColor
 1647 016c 03420000 		.word	16899
 1648              		.cfi_endproc
 1649              	.LFE1:
 1650              		.size	lcdClrscr, .-lcdClrscr
 1651              		.align	1
 1652              		.global	lcdOff
 1653              		.syntax unified
 1654              		.code	16
 1655              		.thumb_func
 1656              		.fpu softvfp
 1657              		.type	lcdOff, %function
 1658              	lcdOff:
 1659              	.LFB2:
 161:lcd.c         **** 
 162:lcd.c         **** /*
 163:lcd.c         ****  *  @brief			Funkcja wylaczajaca wyswietlacz LCD.
ARM GAS  C:\Users\embedded\AppData\Local\Temp\ccbbimIb.s 			page 33


 164:lcd.c         ****  *
 165:lcd.c         ****  *  @Description	Funkcja wylaczajaca wyswietlacz LCD.
 166:lcd.c         ****  *
 167:lcd.c         ****  *  @param 			brak
 168:lcd.c         ****  *
 169:lcd.c         ****  *  @returns  		nic
 170:lcd.c         ****  *
 171:lcd.c         ****  *  @side effects	Przejscie wyswietlacza LCD w stan uspienia.
 172:lcd.c         ****  */
 173:lcd.c         **** void lcdOff(void)
 174:lcd.c         **** {
 1660              		.loc 1 174 0
 1661              		.cfi_startproc
 1662              		@ Function supports interworking.
 1663              		@ args = 0, pretend = 0, frame = 0
 1664              		@ frame_needed = 1, uses_anonymous_args = 0
 1665 0170 80B5     		push	{r7, lr}
 1666              	.LCFI5:
 1667              		.cfi_def_cfa_offset 8
 1668              		.cfi_offset 7, -8
 1669              		.cfi_offset 14, -4
 1670 0172 00AF     		add	r7, sp, #0
 1671              	.LCFI6:
 1672              		.cfi_def_cfa_register 7
 175:lcd.c         ****     lcdClrscr();
 1673              		.loc 1 175 0
 1674 0174 FFF7FEFF 		bl	lcdClrscr
 176:lcd.c         ****     
 177:lcd.c         ****     //select controller
 178:lcd.c         ****     selectLCD(TRUE);
 1675              		.loc 1 178 0
 1676 0178 0120     		movs	r0, #1
 1677 017a FFF7FEFF 		bl	selectLCD
 179:lcd.c         ****     
 180:lcd.c         ****     lcdWrcmd(LCD_CMD_SLEEPIN);
 1678              		.loc 1 180 0
 1679 017e 1020     		movs	r0, #16
 1680 0180 FFF7FEFF 		bl	lcdWrcmd
 181:lcd.c         ****     
 182:lcd.c         ****     //deselect controller
 183:lcd.c         ****     selectLCD(FALSE);
 1681              		.loc 1 183 0
 1682 0184 0020     		movs	r0, #0
 1683 0186 FFF7FEFF 		bl	selectLCD
 184:lcd.c         **** }
 1684              		.loc 1 184 0
 1685 018a C046     		nop
 1686 018c BD46     		mov	sp, r7
 1687              		@ sp needed
 1688 018e 80BC     		pop	{r7}
 1689 0190 01BC     		pop	{r0}
 1690 0192 0047     		bx	r0
 1691              		.cfi_endproc
 1692              	.LFE2:
 1693              		.size	lcdOff, .-lcdOff
 1694              		.align	1
 1695              		.global	lcdColor
ARM GAS  C:\Users\embedded\AppData\Local\Temp\ccbbimIb.s 			page 34


 1696              		.syntax unified
 1697              		.code	16
 1698              		.thumb_func
 1699              		.fpu softvfp
 1700              		.type	lcdColor, %function
 1701              	lcdColor:
 1702              	.LFB3:
 185:lcd.c         **** 
 186:lcd.c         **** /*
 187:lcd.c         ****  *  @brief			Funckja ustawiajaca kolor tla i kolor tekstu.
 188:lcd.c         ****  *
 189:lcd.c         ****  *  @Description	Funckja ustawiajaca kolor tla i kolor tekstu.
 190:lcd.c         ****  *
 191:lcd.c         ****  *  @param 			brak
 192:lcd.c         ****  *
 193:lcd.c         ****  *  @returns  		nic
 194:lcd.c         ****  *
 195:lcd.c         ****  *  @side effects	Ustawienie kontrastu wyswietlacza LCD.
 196:lcd.c         ****  */
 197:lcd.c         **** void lcdColor(tU8 bkg, tU8 text)
 198:lcd.c         **** {
 1703              		.loc 1 198 0
 1704              		.cfi_startproc
 1705              		@ Function supports interworking.
 1706              		@ args = 0, pretend = 0, frame = 8
 1707              		@ frame_needed = 1, uses_anonymous_args = 0
 1708 0194 80B5     		push	{r7, lr}
 1709              	.LCFI7:
 1710              		.cfi_def_cfa_offset 8
 1711              		.cfi_offset 7, -8
 1712              		.cfi_offset 14, -4
 1713 0196 82B0     		sub	sp, sp, #8
 1714              	.LCFI8:
 1715              		.cfi_def_cfa_offset 16
 1716 0198 00AF     		add	r7, sp, #0
 1717              	.LCFI9:
 1718              		.cfi_def_cfa_register 7
 1719 019a 0200     		movs	r2, r0
 1720 019c FB1D     		adds	r3, r7, #7
 1721 019e 1A70     		strb	r2, [r3]
 1722 01a0 BB1D     		adds	r3, r7, #6
 1723 01a2 0A1C     		adds	r2, r1, #0
 1724 01a4 1A70     		strb	r2, [r3]
 199:lcd.c         ****     bkgColor  = bkg;
 1725              		.loc 1 199 0
 1726 01a6 074B     		ldr	r3, .L11
 1727 01a8 FA1D     		adds	r2, r7, #7
 1728 01aa 1278     		ldrb	r2, [r2]
 1729 01ac 1A70     		strb	r2, [r3]
 200:lcd.c         ****     textColor = text;
 1730              		.loc 1 200 0
 1731 01ae 064B     		ldr	r3, .L11+4
 1732 01b0 BA1D     		adds	r2, r7, #6
 1733 01b2 1278     		ldrb	r2, [r2]
 1734 01b4 1A70     		strb	r2, [r3]
 201:lcd.c         **** }
 1735              		.loc 1 201 0
ARM GAS  C:\Users\embedded\AppData\Local\Temp\ccbbimIb.s 			page 35


 1736 01b6 C046     		nop
 1737 01b8 BD46     		mov	sp, r7
 1738 01ba 02B0     		add	sp, sp, #8
 1739              		@ sp needed
 1740 01bc 80BC     		pop	{r7}
 1741 01be 01BC     		pop	{r0}
 1742 01c0 0047     		bx	r0
 1743              	.L12:
 1744 01c2 C046     		.align	2
 1745              	.L11:
 1746 01c4 02000000 		.word	bkgColor
 1747 01c8 03000000 		.word	textColor
 1748              		.cfi_endproc
 1749              	.LFE3:
 1750              		.size	lcdColor, .-lcdColor
 1751              		.align	1
 1752              		.global	lcdMirror
 1753              		.syntax unified
 1754              		.code	16
 1755              		.thumb_func
 1756              		.fpu softvfp
 1757              		.type	lcdMirror, %function
 1758              	lcdMirror:
 1759              	.LFB4:
 202:lcd.c         **** 
 203:lcd.c         **** /*
 204:lcd.c         ****  *  @brief			Funckja odpowiadajaca za ustawienie odbicia lustrzanego wzdloz osi X oraz osi Y wyswie
 205:lcd.c         ****  *
 206:lcd.c         ****  *  @Description	Funckja odpowiadajaca za ustawienie odbicia lustrzanego wzdloz osi X oraz osi Y wy
 207:lcd.c         ****  *
 208:lcd.c         ****  *  @param 			[in]    mirrorX
 209:lcd.c         ****  *                      Jesli TRUE ma nastapic odbicie lustrzone wzdluz osi X.
 210:lcd.c         ****  *
 211:lcd.c         ****  *  @param 			[in]    mirrorY
 212:lcd.c         ****  *                      Jesli TRUE ma nastapic odbicie lustrzone wzdluz osi Y.
 213:lcd.c         ****  *
 214:lcd.c         ****  *  @returns  		nic
 215:lcd.c         ****  *
 216:lcd.c         ****  *  @side effects	Ustawienie kontrastu wyswietlacza LCD.
 217:lcd.c         ****  */
 218:lcd.c         **** void lcdMirror(tBool mirrorX, tBool mirrorY)
 219:lcd.c         **** {
 1760              		.loc 1 219 0
 1761              		.cfi_startproc
 1762              		@ Function supports interworking.
 1763              		@ args = 0, pretend = 0, frame = 16
 1764              		@ frame_needed = 1, uses_anonymous_args = 0
 1765 01cc 80B5     		push	{r7, lr}
 1766              	.LCFI10:
 1767              		.cfi_def_cfa_offset 8
 1768              		.cfi_offset 7, -8
 1769              		.cfi_offset 14, -4
 1770 01ce 84B0     		sub	sp, sp, #16
 1771              	.LCFI11:
 1772              		.cfi_def_cfa_offset 24
 1773 01d0 00AF     		add	r7, sp, #0
 1774              	.LCFI12:
ARM GAS  C:\Users\embedded\AppData\Local\Temp\ccbbimIb.s 			page 36


 1775              		.cfi_def_cfa_register 7
 1776 01d2 0200     		movs	r2, r0
 1777 01d4 FB1D     		adds	r3, r7, #7
 1778 01d6 1A70     		strb	r2, [r3]
 1779 01d8 BB1D     		adds	r3, r7, #6
 1780 01da 0A1C     		adds	r2, r1, #0
 1781 01dc 1A70     		strb	r2, [r3]
 220:lcd.c         ****     tU16 data = 0x08;//(1 << 5) | (1 << 4) | (1 << 2) | (1 << 1);
 1782              		.loc 1 220 0
 1783 01de 0E23     		movs	r3, #14
 1784 01e0 FB18     		adds	r3, r7, r3
 1785 01e2 0822     		movs	r2, #8
 1786 01e4 1A80     		strh	r2, [r3]
 221:lcd.c         **** 
 222:lcd.c         ****     //Ustawienie odbica lustrzanego wzdluz osi X
 223:lcd.c         ****     if (mirrorX == TRUE)
 1787              		.loc 1 223 0
 1788 01e6 FB1D     		adds	r3, r7, #7
 1789 01e8 1B78     		ldrb	r3, [r3]
 1790 01ea 012B     		cmp	r3, #1
 1791 01ec 06D1     		bne	.L14
 224:lcd.c         ****     {
 225:lcd.c         ****         data |= 0x80;
 1792              		.loc 1 225 0
 1793 01ee 0E22     		movs	r2, #14
 1794 01f0 BB18     		adds	r3, r7, r2
 1795 01f2 BA18     		adds	r2, r7, r2
 1796 01f4 1288     		ldrh	r2, [r2]
 1797 01f6 8021     		movs	r1, #128
 1798 01f8 0A43     		orrs	r2, r1
 1799 01fa 1A80     		strh	r2, [r3]
 1800              	.L14:
 226:lcd.c         ****     }
 227:lcd.c         **** 
 228:lcd.c         ****     //Ustawienie odbica lustrzanego wzdluz osi Y
 229:lcd.c         ****     if (mirrorY == TRUE)
 1801              		.loc 1 229 0
 1802 01fc BB1D     		adds	r3, r7, #6
 1803 01fe 1B78     		ldrb	r3, [r3]
 1804 0200 012B     		cmp	r3, #1
 1805 0202 06D1     		bne	.L15
 230:lcd.c         ****     {
 231:lcd.c         ****         data |= 0x40;
 1806              		.loc 1 231 0
 1807 0204 0E22     		movs	r2, #14
 1808 0206 BB18     		adds	r3, r7, r2
 1809 0208 BA18     		adds	r2, r7, r2
 1810 020a 1288     		ldrh	r2, [r2]
 1811 020c 4021     		movs	r1, #64
 1812 020e 0A43     		orrs	r2, r1
 1813 0210 1A80     		strh	r2, [r3]
 1814              	.L15:
 232:lcd.c         ****     }
 233:lcd.c         **** 
 234:lcd.c         ****     selectLCD(TRUE);
 1815              		.loc 1 234 0
 1816 0212 0120     		movs	r0, #1
ARM GAS  C:\Users\embedded\AppData\Local\Temp\ccbbimIb.s 			page 37


 1817 0214 FFF7FEFF 		bl	selectLCD
 235:lcd.c         ****     //Wysanie do LCD odpowiedniej komendy powiazanej z ustawianiem odbicia lustrzanego.
 236:lcd.c         ****     lcdWrcmd(LCD_CMD_MADCTL);
 1818              		.loc 1 236 0
 1819 0218 3620     		movs	r0, #54
 1820 021a FFF7FEFF 		bl	lcdWrcmd
 237:lcd.c         ****     //Przesanie danych do komendy.
 238:lcd.c         ****     lcdWrdata(data);
 1821              		.loc 1 238 0
 1822 021e 0E23     		movs	r3, #14
 1823 0220 FB18     		adds	r3, r7, r3
 1824 0222 1B88     		ldrh	r3, [r3]
 1825 0224 1B06     		lsls	r3, r3, #24
 1826 0226 1B0E     		lsrs	r3, r3, #24
 1827 0228 1800     		movs	r0, r3
 1828 022a FFF7FEFF 		bl	lcdWrdata
 239:lcd.c         ****     selectLCD(FALSE);
 1829              		.loc 1 239 0
 1830 022e 0020     		movs	r0, #0
 1831 0230 FFF7FEFF 		bl	selectLCD
 240:lcd.c         **** }
 1832              		.loc 1 240 0
 1833 0234 C046     		nop
 1834 0236 BD46     		mov	sp, r7
 1835 0238 04B0     		add	sp, sp, #16
 1836              		@ sp needed
 1837 023a 80BC     		pop	{r7}
 1838 023c 01BC     		pop	{r0}
 1839 023e 0047     		bx	r0
 1840              		.cfi_endproc
 1841              	.LFE4:
 1842              		.size	lcdMirror, .-lcdMirror
 1843              		.align	1
 1844              		.syntax unified
 1845              		.code	16
 1846              		.thumb_func
 1847              		.fpu softvfp
 1848              		.type	lcdContrast, %function
 1849              	lcdContrast:
 1850              	.LFB5:
 241:lcd.c         **** 
 242:lcd.c         **** /*
 243:lcd.c         ****  *  @brief			Funckja ustawiajaca kontrast.
 244:lcd.c         ****  *
 245:lcd.c         ****  *  @Description	Funkcja ustawiajaca kontrast wywietlacza LCD.
 246:lcd.c         ****  *
 247:lcd.c         ****  *  @param 			[in]    contrast
 248:lcd.c         ****  *                      Wartosc calkowita z przedzialu 0 - 127 okreslajaca kontrast.
 249:lcd.c         ****  *
 250:lcd.c         ****  *  @returns  		nic
 251:lcd.c         ****  *
 252:lcd.c         ****  *  @side effects	Ustawienie kontrastu wyswietlacza LCD.
 253:lcd.c         ****  */
 254:lcd.c         **** static void lcdContrast(tU8 cont) //vary between 0 - 127
 255:lcd.c         **** {
 1851              		.loc 1 255 0
 1852              		.cfi_startproc
ARM GAS  C:\Users\embedded\AppData\Local\Temp\ccbbimIb.s 			page 38


 1853              		@ Function supports interworking.
 1854              		@ args = 0, pretend = 0, frame = 8
 1855              		@ frame_needed = 1, uses_anonymous_args = 0
 1856 0240 80B5     		push	{r7, lr}
 1857              	.LCFI13:
 1858              		.cfi_def_cfa_offset 8
 1859              		.cfi_offset 7, -8
 1860              		.cfi_offset 14, -4
 1861 0242 82B0     		sub	sp, sp, #8
 1862              	.LCFI14:
 1863              		.cfi_def_cfa_offset 16
 1864 0244 00AF     		add	r7, sp, #0
 1865              	.LCFI15:
 1866              		.cfi_def_cfa_register 7
 1867 0246 0200     		movs	r2, r0
 1868 0248 FB1D     		adds	r3, r7, #7
 1869 024a 1A70     		strb	r2, [r3]
 256:lcd.c         ****     //select controller
 257:lcd.c         ****     selectLCD(TRUE);
 1870              		.loc 1 257 0
 1871 024c 0120     		movs	r0, #1
 1872 024e FFF7FEFF 		bl	selectLCD
 258:lcd.c         ****     
 259:lcd.c         ****     //set contrast cmd.
 260:lcd.c         ****     lcdWrcmd(LCD_CMD_SETCON);
 1873              		.loc 1 260 0
 1874 0252 2520     		movs	r0, #37
 1875 0254 FFF7FEFF 		bl	lcdWrcmd
 261:lcd.c         ****     lcdWrdata(cont);
 1876              		.loc 1 261 0
 1877 0258 FB1D     		adds	r3, r7, #7
 1878 025a 1B78     		ldrb	r3, [r3]
 1879 025c 1800     		movs	r0, r3
 1880 025e FFF7FEFF 		bl	lcdWrdata
 262:lcd.c         ****     
 263:lcd.c         ****     //deselect controller
 264:lcd.c         ****     selectLCD(FALSE);
 1881              		.loc 1 264 0
 1882 0262 0020     		movs	r0, #0
 1883 0264 FFF7FEFF 		bl	selectLCD
 265:lcd.c         **** }
 1884              		.loc 1 265 0
 1885 0268 C046     		nop
 1886 026a BD46     		mov	sp, r7
 1887 026c 02B0     		add	sp, sp, #8
 1888              		@ sp needed
 1889 026e 80BC     		pop	{r7}
 1890 0270 01BC     		pop	{r0}
 1891 0272 0047     		bx	r0
 1892              		.cfi_endproc
 1893              	.LFE5:
 1894              		.size	lcdContrast, .-lcdContrast
 1895              		.align	1
 1896              		.global	lcdRect
 1897              		.syntax unified
 1898              		.code	16
 1899              		.thumb_func
ARM GAS  C:\Users\embedded\AppData\Local\Temp\ccbbimIb.s 			page 39


 1900              		.fpu softvfp
 1901              		.type	lcdRect, %function
 1902              	lcdRect:
 1903              	.LFB6:
 266:lcd.c         **** 
 267:lcd.c         **** /*
 268:lcd.c         ****  *  @brief			Funkcja rysujaca prostokat.
 269:lcd.c         ****  *
 270:lcd.c         ****  *  @Description	Funkcja rysujaca prostokat o okreslonym kolorze.
 271:lcd.c         ****  *
 272:lcd.c         ****  *  @param 			[in]    x
 273:lcd.c         ****  *                      Pozycja x rysowanego prostokata.
 274:lcd.c         ****  *
 275:lcd.c         ****  *  @param 			[in]    y
 276:lcd.c         ****  *                      Pozycja y rysowanego prostokata.
 277:lcd.c         ****  *
 278:lcd.c         ****  *  @param 			[in]    xLen
 279:lcd.c         ****  *                      Szerokosc rysowanego prostokata.
 280:lcd.c         ****  *
 281:lcd.c         ****  *  @param 			[in]    yLen
 282:lcd.c         ****  *                      Wysokosc rysowanego prostokata.
 283:lcd.c         ****  *
 284:lcd.c         ****  *  @param 			[in]    color
 285:lcd.c         ****  *                      Kolor rysowanego prostokata.
 286:lcd.c         ****  *
 287:lcd.c         ****  *  @returns  		nic
 288:lcd.c         ****  *
 289:lcd.c         ****  *  @side effects	Przeslanie danych przez magistrale.
 290:lcd.c         ****  */
 291:lcd.c         **** void lcdRect(tU8 x, tU8 y, tU8 xLen, tU8 yLen, tU8 color)
 292:lcd.c         **** {
 1904              		.loc 1 292 0
 1905              		.cfi_startproc
 1906              		@ Function supports interworking.
 1907              		@ args = 4, pretend = 0, frame = 16
 1908              		@ frame_needed = 1, uses_anonymous_args = 0
 1909 0274 B0B5     		push	{r4, r5, r7, lr}
 1910              	.LCFI16:
 1911              		.cfi_def_cfa_offset 16
 1912              		.cfi_offset 4, -16
 1913              		.cfi_offset 5, -12
 1914              		.cfi_offset 7, -8
 1915              		.cfi_offset 14, -4
 1916 0276 84B0     		sub	sp, sp, #16
 1917              	.LCFI17:
 1918              		.cfi_def_cfa_offset 32
 1919 0278 00AF     		add	r7, sp, #0
 1920              	.LCFI18:
 1921              		.cfi_def_cfa_register 7
 1922 027a 0500     		movs	r5, r0
 1923 027c 0C00     		movs	r4, r1
 1924 027e 1000     		movs	r0, r2
 1925 0280 1900     		movs	r1, r3
 1926 0282 FB1D     		adds	r3, r7, #7
 1927 0284 2A1C     		adds	r2, r5, #0
 1928 0286 1A70     		strb	r2, [r3]
 1929 0288 BB1D     		adds	r3, r7, #6
ARM GAS  C:\Users\embedded\AppData\Local\Temp\ccbbimIb.s 			page 40


 1930 028a 221C     		adds	r2, r4, #0
 1931 028c 1A70     		strb	r2, [r3]
 1932 028e 7B1D     		adds	r3, r7, #5
 1933 0290 021C     		adds	r2, r0, #0
 1934 0292 1A70     		strb	r2, [r3]
 1935 0294 3B1D     		adds	r3, r7, #4
 1936 0296 0A1C     		adds	r2, r1, #0
 1937 0298 1A70     		strb	r2, [r3]
 293:lcd.c         ****     tU32 i;
 294:lcd.c         ****     tU32 len;
 295:lcd.c         ****     
 296:lcd.c         ****     //select controller
 297:lcd.c         ****     selectLCD(TRUE);   
 1938              		.loc 1 297 0
 1939 029a 0120     		movs	r0, #1
 1940 029c FFF7FEFF 		bl	selectLCD
 298:lcd.c         ****     
 299:lcd.c         ****     lcdWindow1(x, y, x + xLen - 1u, y + yLen - 1u);
 1941              		.loc 1 299 0
 1942 02a0 FA1D     		adds	r2, r7, #7
 1943 02a2 7B1D     		adds	r3, r7, #5
 1944 02a4 1278     		ldrb	r2, [r2]
 1945 02a6 1B78     		ldrb	r3, [r3]
 1946 02a8 D318     		adds	r3, r2, r3
 1947 02aa 1B06     		lsls	r3, r3, #24
 1948 02ac 1B0E     		lsrs	r3, r3, #24
 1949 02ae 013B     		subs	r3, r3, #1
 1950 02b0 1B06     		lsls	r3, r3, #24
 1951 02b2 1C0E     		lsrs	r4, r3, #24
 1952 02b4 BA1D     		adds	r2, r7, #6
 1953 02b6 3B1D     		adds	r3, r7, #4
 1954 02b8 1278     		ldrb	r2, [r2]
 1955 02ba 1B78     		ldrb	r3, [r3]
 1956 02bc D318     		adds	r3, r2, r3
 1957 02be 1B06     		lsls	r3, r3, #24
 1958 02c0 1B0E     		lsrs	r3, r3, #24
 1959 02c2 013B     		subs	r3, r3, #1
 1960 02c4 1B06     		lsls	r3, r3, #24
 1961 02c6 1A0E     		lsrs	r2, r3, #24
 1962 02c8 BB1D     		adds	r3, r7, #6
 1963 02ca 1978     		ldrb	r1, [r3]
 1964 02cc FB1D     		adds	r3, r7, #7
 1965 02ce 1878     		ldrb	r0, [r3]
 1966 02d0 1300     		movs	r3, r2
 1967 02d2 2200     		movs	r2, r4
 1968 02d4 00F012FA 		bl	lcdWindow1
 300:lcd.c         ****     
 301:lcd.c         ****     lcdWrcmd(LCD_CMD_RAMWR);    //write memory
 1969              		.loc 1 301 0
 1970 02d8 2C20     		movs	r0, #44
 1971 02da FFF7FEFF 		bl	lcdWrcmd
 302:lcd.c         ****     
 303:lcd.c         ****     len = (tU32) xLen * yLen;
 1972              		.loc 1 303 0
 1973 02de 7B1D     		adds	r3, r7, #5
 1974 02e0 1978     		ldrb	r1, [r3]
 1975 02e2 3A1D     		adds	r2, r7, #4
ARM GAS  C:\Users\embedded\AppData\Local\Temp\ccbbimIb.s 			page 41


 1976 02e4 1278     		ldrb	r2, [r2]
 1977 02e6 0B00     		movs	r3, r1
 1978 02e8 5343     		muls	r3, r2
 1979 02ea BB60     		str	r3, [r7, #8]
 304:lcd.c         ****     for (i = 0; i < len; i++)
 1980              		.loc 1 304 0
 1981 02ec 0023     		movs	r3, #0
 1982 02ee FB60     		str	r3, [r7, #12]
 1983 02f0 08E0     		b	.L18
 1984              	.L19:
 305:lcd.c         ****     {
 306:lcd.c         ****         lcdWrdata(color);
 1985              		.loc 1 306 0 discriminator 3
 1986 02f2 2023     		movs	r3, #32
 1987 02f4 FB18     		adds	r3, r7, r3
 1988 02f6 1B78     		ldrb	r3, [r3]
 1989 02f8 1800     		movs	r0, r3
 1990 02fa FFF7FEFF 		bl	lcdWrdata
 304:lcd.c         ****     for (i = 0; i < len; i++)
 1991              		.loc 1 304 0 discriminator 3
 1992 02fe FB68     		ldr	r3, [r7, #12]
 1993 0300 0133     		adds	r3, r3, #1
 1994 0302 FB60     		str	r3, [r7, #12]
 1995              	.L18:
 304:lcd.c         ****     for (i = 0; i < len; i++)
 1996              		.loc 1 304 0 is_stmt 0 discriminator 1
 1997 0304 FA68     		ldr	r2, [r7, #12]
 1998 0306 BB68     		ldr	r3, [r7, #8]
 1999 0308 9A42     		cmp	r2, r3
 2000 030a F2D3     		bcc	.L19
 307:lcd.c         ****     }
 308:lcd.c         ****     
 309:lcd.c         ****     //deselect controller
 310:lcd.c         ****     selectLCD(FALSE);
 2001              		.loc 1 310 0 is_stmt 1
 2002 030c 0020     		movs	r0, #0
 2003 030e FFF7FEFF 		bl	selectLCD
 311:lcd.c         **** }
 2004              		.loc 1 311 0
 2005 0312 C046     		nop
 2006 0314 BD46     		mov	sp, r7
 2007 0316 04B0     		add	sp, sp, #16
 2008              		@ sp needed
 2009 0318 B0BC     		pop	{r4, r5, r7}
 2010 031a 01BC     		pop	{r0}
 2011 031c 0047     		bx	r0
 2012              		.cfi_endproc
 2013              	.LFE6:
 2014              		.size	lcdRect, .-lcdRect
 2015              		.align	1
 2016              		.global	lcdRectBrd
 2017              		.syntax unified
 2018              		.code	16
 2019              		.thumb_func
 2020              		.fpu softvfp
 2021              		.type	lcdRectBrd, %function
 2022              	lcdRectBrd:
ARM GAS  C:\Users\embedded\AppData\Local\Temp\ccbbimIb.s 			page 42


 2023              	.LFB7:
 312:lcd.c         **** 
 313:lcd.c         **** /*
 314:lcd.c         ****  *  @brief			Funkcja rysujaca prostokat o okreslonym wypelnieniu i okreslonych kolorach krawedzi.
 315:lcd.c         ****  *
 316:lcd.c         ****  *  @Description	Funkcja rysujaca prostokat o okreslonym wypelnieniu i okreslonych kolorach krawedz
 317:lcd.c         ****  *
 318:lcd.c         ****  *  @param 			[in]    x
 319:lcd.c         ****  *                      Pozycja x rysowanego prostokata.
 320:lcd.c         ****  *
 321:lcd.c         ****  *  @param 			[in]    y
 322:lcd.c         ****  *                      Pozycja y rysowanego prostokata.
 323:lcd.c         ****  *
 324:lcd.c         ****  *  @param 			[in]    xLen
 325:lcd.c         ****  *                      Szerokosc rysowanego prostokata.
 326:lcd.c         ****  *
 327:lcd.c         ****  *  @param 			[in]    yLen
 328:lcd.c         ****  *                      Wysokosc rysowanego prostokata.
 329:lcd.c         ****  *
 330:lcd.c         ****  *  @param 			[in]    color
 331:lcd.c         ****  *                      Kolor rysowanego prostokata.
 332:lcd.c         ****  *
 333:lcd.c         ****  *  @returns  		nic
 334:lcd.c         ****  *
 335:lcd.c         ****  *  @side effects	Przeslanie danych przez magistrale.
 336:lcd.c         ****  */
 337:lcd.c         **** void lcdRectBrd(tU8 x, tU8 y, tU8 xLen, tU8 yLen, tU8 color1, tU8 color2, tU8 color3)
 338:lcd.c         **** {
 2024              		.loc 1 338 0
 2025              		.cfi_startproc
 2026              		@ Function supports interworking.
 2027              		@ args = 12, pretend = 0, frame = 16
 2028              		@ frame_needed = 1, uses_anonymous_args = 0
 2029 031e B0B5     		push	{r4, r5, r7, lr}
 2030              	.LCFI19:
 2031              		.cfi_def_cfa_offset 16
 2032              		.cfi_offset 4, -16
 2033              		.cfi_offset 5, -12
 2034              		.cfi_offset 7, -8
 2035              		.cfi_offset 14, -4
 2036 0320 84B0     		sub	sp, sp, #16
 2037              	.LCFI20:
 2038              		.cfi_def_cfa_offset 32
 2039 0322 00AF     		add	r7, sp, #0
 2040              	.LCFI21:
 2041              		.cfi_def_cfa_register 7
 2042 0324 0500     		movs	r5, r0
 2043 0326 0C00     		movs	r4, r1
 2044 0328 1000     		movs	r0, r2
 2045 032a 1900     		movs	r1, r3
 2046 032c FB1D     		adds	r3, r7, #7
 2047 032e 2A1C     		adds	r2, r5, #0
 2048 0330 1A70     		strb	r2, [r3]
 2049 0332 BB1D     		adds	r3, r7, #6
 2050 0334 221C     		adds	r2, r4, #0
 2051 0336 1A70     		strb	r2, [r3]
 2052 0338 7B1D     		adds	r3, r7, #5
ARM GAS  C:\Users\embedded\AppData\Local\Temp\ccbbimIb.s 			page 43


 2053 033a 021C     		adds	r2, r0, #0
 2054 033c 1A70     		strb	r2, [r3]
 2055 033e 3B1D     		adds	r3, r7, #4
 2056 0340 0A1C     		adds	r2, r1, #0
 2057 0342 1A70     		strb	r2, [r3]
 339:lcd.c         ****     tU8 i;
 340:lcd.c         ****     tU8 j;
 341:lcd.c         ****     
 342:lcd.c         ****     //select controller
 343:lcd.c         ****     selectLCD(TRUE);
 2058              		.loc 1 343 0
 2059 0344 0120     		movs	r0, #1
 2060 0346 FFF7FEFF 		bl	selectLCD
 344:lcd.c         ****     
 345:lcd.c         ****     lcdWindow1(x, y, x + xLen - 1u, y + yLen - 1u);
 2061              		.loc 1 345 0
 2062 034a FA1D     		adds	r2, r7, #7
 2063 034c 7B1D     		adds	r3, r7, #5
 2064 034e 1278     		ldrb	r2, [r2]
 2065 0350 1B78     		ldrb	r3, [r3]
 2066 0352 D318     		adds	r3, r2, r3
 2067 0354 1B06     		lsls	r3, r3, #24
 2068 0356 1B0E     		lsrs	r3, r3, #24
 2069 0358 013B     		subs	r3, r3, #1
 2070 035a 1B06     		lsls	r3, r3, #24
 2071 035c 1C0E     		lsrs	r4, r3, #24
 2072 035e BA1D     		adds	r2, r7, #6
 2073 0360 3B1D     		adds	r3, r7, #4
 2074 0362 1278     		ldrb	r2, [r2]
 2075 0364 1B78     		ldrb	r3, [r3]
 2076 0366 D318     		adds	r3, r2, r3
 2077 0368 1B06     		lsls	r3, r3, #24
 2078 036a 1B0E     		lsrs	r3, r3, #24
 2079 036c 013B     		subs	r3, r3, #1
 2080 036e 1B06     		lsls	r3, r3, #24
 2081 0370 1A0E     		lsrs	r2, r3, #24
 2082 0372 BB1D     		adds	r3, r7, #6
 2083 0374 1978     		ldrb	r1, [r3]
 2084 0376 FB1D     		adds	r3, r7, #7
 2085 0378 1878     		ldrb	r0, [r3]
 2086 037a 1300     		movs	r3, r2
 2087 037c 2200     		movs	r2, r4
 2088 037e 00F0BDF9 		bl	lcdWindow1
 346:lcd.c         ****     
 347:lcd.c         ****     lcdWrcmd(LCD_CMD_RAMWR);    //write memory
 2089              		.loc 1 347 0
 2090 0382 2C20     		movs	r0, #44
 2091 0384 FFF7FEFF 		bl	lcdWrcmd
 348:lcd.c         ****     
 349:lcd.c         ****     for (i = 0; i < xLen; i++)
 2092              		.loc 1 349 0
 2093 0388 0F23     		movs	r3, #15
 2094 038a FB18     		adds	r3, r7, r3
 2095 038c 0022     		movs	r2, #0
 2096 038e 1A70     		strb	r2, [r3]
 2097 0390 0BE0     		b	.L21
 2098              	.L22:
ARM GAS  C:\Users\embedded\AppData\Local\Temp\ccbbimIb.s 			page 44


 350:lcd.c         ****     {
 351:lcd.c         ****         lcdWrdata(color2);
 2099              		.loc 1 351 0 discriminator 3
 2100 0392 2423     		movs	r3, #36
 2101 0394 FB18     		adds	r3, r7, r3
 2102 0396 1B78     		ldrb	r3, [r3]
 2103 0398 1800     		movs	r0, r3
 2104 039a FFF7FEFF 		bl	lcdWrdata
 349:lcd.c         ****     {
 2105              		.loc 1 349 0 discriminator 3
 2106 039e 0F21     		movs	r1, #15
 2107 03a0 7B18     		adds	r3, r7, r1
 2108 03a2 1A78     		ldrb	r2, [r3]
 2109 03a4 7B18     		adds	r3, r7, r1
 2110 03a6 0132     		adds	r2, r2, #1
 2111 03a8 1A70     		strb	r2, [r3]
 2112              	.L21:
 349:lcd.c         ****     {
 2113              		.loc 1 349 0 is_stmt 0 discriminator 1
 2114 03aa 0F23     		movs	r3, #15
 2115 03ac FA18     		adds	r2, r7, r3
 2116 03ae 7B1D     		adds	r3, r7, #5
 2117 03b0 1278     		ldrb	r2, [r2]
 2118 03b2 1B78     		ldrb	r3, [r3]
 2119 03b4 9A42     		cmp	r2, r3
 2120 03b6 ECD3     		bcc	.L22
 352:lcd.c         ****     }
 353:lcd.c         ****     for(j = 1; j < (yLen - 2u); j++)
 2121              		.loc 1 353 0 is_stmt 1
 2122 03b8 0E23     		movs	r3, #14
 2123 03ba FB18     		adds	r3, r7, r3
 2124 03bc 0122     		movs	r2, #1
 2125 03be 1A70     		strb	r2, [r3]
 2126 03c0 2AE0     		b	.L23
 2127              	.L26:
 354:lcd.c         ****     {
 355:lcd.c         ****         lcdWrdata(color2);
 2128              		.loc 1 355 0
 2129 03c2 2423     		movs	r3, #36
 2130 03c4 FB18     		adds	r3, r7, r3
 2131 03c6 1B78     		ldrb	r3, [r3]
 2132 03c8 1800     		movs	r0, r3
 2133 03ca FFF7FEFF 		bl	lcdWrdata
 356:lcd.c         ****         for (i = 0; i < (xLen - 2u); i++)
 2134              		.loc 1 356 0
 2135 03ce 0F23     		movs	r3, #15
 2136 03d0 FB18     		adds	r3, r7, r3
 2137 03d2 0022     		movs	r2, #0
 2138 03d4 1A70     		strb	r2, [r3]
 2139 03d6 0BE0     		b	.L24
 2140              	.L25:
 357:lcd.c         ****         {
 358:lcd.c         ****             lcdWrdata(color1);
 2141              		.loc 1 358 0 discriminator 3
 2142 03d8 2023     		movs	r3, #32
 2143 03da FB18     		adds	r3, r7, r3
 2144 03dc 1B78     		ldrb	r3, [r3]
ARM GAS  C:\Users\embedded\AppData\Local\Temp\ccbbimIb.s 			page 45


 2145 03de 1800     		movs	r0, r3
 2146 03e0 FFF7FEFF 		bl	lcdWrdata
 356:lcd.c         ****         for (i = 0; i < (xLen - 2u); i++)
 2147              		.loc 1 356 0 discriminator 3
 2148 03e4 0F21     		movs	r1, #15
 2149 03e6 7B18     		adds	r3, r7, r1
 2150 03e8 1A78     		ldrb	r2, [r3]
 2151 03ea 7B18     		adds	r3, r7, r1
 2152 03ec 0132     		adds	r2, r2, #1
 2153 03ee 1A70     		strb	r2, [r3]
 2154              	.L24:
 356:lcd.c         ****         for (i = 0; i < (xLen - 2u); i++)
 2155              		.loc 1 356 0 is_stmt 0 discriminator 1
 2156 03f0 0F23     		movs	r3, #15
 2157 03f2 FB18     		adds	r3, r7, r3
 2158 03f4 1A78     		ldrb	r2, [r3]
 2159 03f6 7B1D     		adds	r3, r7, #5
 2160 03f8 1B78     		ldrb	r3, [r3]
 2161 03fa 023B     		subs	r3, r3, #2
 2162 03fc 9A42     		cmp	r2, r3
 2163 03fe EBD3     		bcc	.L25
 359:lcd.c         ****         }
 360:lcd.c         ****         lcdWrdata(color3);
 2164              		.loc 1 360 0 is_stmt 1 discriminator 2
 2165 0400 2823     		movs	r3, #40
 2166 0402 FB18     		adds	r3, r7, r3
 2167 0404 1B78     		ldrb	r3, [r3]
 2168 0406 1800     		movs	r0, r3
 2169 0408 FFF7FEFF 		bl	lcdWrdata
 353:lcd.c         ****     {
 2170              		.loc 1 353 0 discriminator 2
 2171 040c 0E21     		movs	r1, #14
 2172 040e 7B18     		adds	r3, r7, r1
 2173 0410 1A78     		ldrb	r2, [r3]
 2174 0412 7B18     		adds	r3, r7, r1
 2175 0414 0132     		adds	r2, r2, #1
 2176 0416 1A70     		strb	r2, [r3]
 2177              	.L23:
 353:lcd.c         ****     {
 2178              		.loc 1 353 0 is_stmt 0 discriminator 1
 2179 0418 0E23     		movs	r3, #14
 2180 041a FB18     		adds	r3, r7, r3
 2181 041c 1A78     		ldrb	r2, [r3]
 2182 041e 3B1D     		adds	r3, r7, #4
 2183 0420 1B78     		ldrb	r3, [r3]
 2184 0422 023B     		subs	r3, r3, #2
 2185 0424 9A42     		cmp	r2, r3
 2186 0426 CCD3     		bcc	.L26
 361:lcd.c         ****     }
 362:lcd.c         ****     for (i = 0; i < xLen; i++)
 2187              		.loc 1 362 0 is_stmt 1
 2188 0428 0F23     		movs	r3, #15
 2189 042a FB18     		adds	r3, r7, r3
 2190 042c 0022     		movs	r2, #0
 2191 042e 1A70     		strb	r2, [r3]
 2192 0430 0BE0     		b	.L27
 2193              	.L28:
ARM GAS  C:\Users\embedded\AppData\Local\Temp\ccbbimIb.s 			page 46


 363:lcd.c         ****     {
 364:lcd.c         ****         lcdWrdata(color3);
 2194              		.loc 1 364 0 discriminator 3
 2195 0432 2823     		movs	r3, #40
 2196 0434 FB18     		adds	r3, r7, r3
 2197 0436 1B78     		ldrb	r3, [r3]
 2198 0438 1800     		movs	r0, r3
 2199 043a FFF7FEFF 		bl	lcdWrdata
 362:lcd.c         ****     {
 2200              		.loc 1 362 0 discriminator 3
 2201 043e 0F21     		movs	r1, #15
 2202 0440 7B18     		adds	r3, r7, r1
 2203 0442 1A78     		ldrb	r2, [r3]
 2204 0444 7B18     		adds	r3, r7, r1
 2205 0446 0132     		adds	r2, r2, #1
 2206 0448 1A70     		strb	r2, [r3]
 2207              	.L27:
 362:lcd.c         ****     {
 2208              		.loc 1 362 0 is_stmt 0 discriminator 1
 2209 044a 0F23     		movs	r3, #15
 2210 044c FA18     		adds	r2, r7, r3
 2211 044e 7B1D     		adds	r3, r7, #5
 2212 0450 1278     		ldrb	r2, [r2]
 2213 0452 1B78     		ldrb	r3, [r3]
 2214 0454 9A42     		cmp	r2, r3
 2215 0456 ECD3     		bcc	.L28
 365:lcd.c         ****     }
 366:lcd.c         ****     
 367:lcd.c         ****     //deselect controller
 368:lcd.c         ****     selectLCD(FALSE);
 2216              		.loc 1 368 0 is_stmt 1
 2217 0458 0020     		movs	r0, #0
 2218 045a FFF7FEFF 		bl	selectLCD
 369:lcd.c         **** }
 2219              		.loc 1 369 0
 2220 045e C046     		nop
 2221 0460 BD46     		mov	sp, r7
 2222 0462 04B0     		add	sp, sp, #16
 2223              		@ sp needed
 2224 0464 B0BC     		pop	{r4, r5, r7}
 2225 0466 01BC     		pop	{r0}
 2226 0468 0047     		bx	r0
 2227              		.cfi_endproc
 2228              	.LFE7:
 2229              		.size	lcdRectBrd, .-lcdRectBrd
 2230              		.align	1
 2231              		.global	lcdIcon
 2232              		.syntax unified
 2233              		.code	16
 2234              		.thumb_func
 2235              		.fpu softvfp
 2236              		.type	lcdIcon, %function
 2237              	lcdIcon:
 2238              	.LFB8:
 370:lcd.c         **** 
 371:lcd.c         **** 
 372:lcd.c         **** /*****************************************************************************
ARM GAS  C:\Users\embedded\AppData\Local\Temp\ccbbimIb.s 			page 47


 373:lcd.c         ****  *
 374:lcd.c         ****  * Description:
 375:lcd.c         ****  *    Draw rectangular area from bitmap. Specify xy-position and xy-length.
 376:lcd.c         ****  *    Compressed format is supported.
 377:lcd.c         ****  *
 378:lcd.c         ****  *    In uncompressed color mode, pData points to an area of xLen * yLen
 379:lcd.c         ****  *    bytes with the icon.
 380:lcd.c         ****  *    In compressed mode the escapeChar is used to denote that the next
 381:lcd.c         ****  *    two bytes contain a length and a color (run length encoding)
 382:lcd.c         ****  *    Note that is is still possible to specify the color value that
 383:lcd.c         ****  *    equals the escape value in a compressed string.
 384:lcd.c         ****  *
 385:lcd.c         ****  ****************************************************************************/
 386:lcd.c         **** void lcdIcon(tU8 x, tU8 y, tU8 xLen, tU8 yLen, tBool compressionOn, tU8 escapeChar, const tU8* pDat
 387:lcd.c         **** {
 2239              		.loc 1 387 0
 2240              		.cfi_startproc
 2241              		@ Function supports interworking.
 2242              		@ args = 12, pretend = 0, frame = 24
 2243              		@ frame_needed = 1, uses_anonymous_args = 0
 2244 046a B0B5     		push	{r4, r5, r7, lr}
 2245              	.LCFI22:
 2246              		.cfi_def_cfa_offset 16
 2247              		.cfi_offset 4, -16
 2248              		.cfi_offset 5, -12
 2249              		.cfi_offset 7, -8
 2250              		.cfi_offset 14, -4
 2251 046c 86B0     		sub	sp, sp, #24
 2252              	.LCFI23:
 2253              		.cfi_def_cfa_offset 40
 2254 046e 00AF     		add	r7, sp, #0
 2255              	.LCFI24:
 2256              		.cfi_def_cfa_register 7
 2257 0470 0500     		movs	r5, r0
 2258 0472 0C00     		movs	r4, r1
 2259 0474 1000     		movs	r0, r2
 2260 0476 1900     		movs	r1, r3
 2261 0478 FB1D     		adds	r3, r7, #7
 2262 047a 2A1C     		adds	r2, r5, #0
 2263 047c 1A70     		strb	r2, [r3]
 2264 047e BB1D     		adds	r3, r7, #6
 2265 0480 221C     		adds	r2, r4, #0
 2266 0482 1A70     		strb	r2, [r3]
 2267 0484 7B1D     		adds	r3, r7, #5
 2268 0486 021C     		adds	r2, r0, #0
 2269 0488 1A70     		strb	r2, [r3]
 2270 048a 3B1D     		adds	r3, r7, #4
 2271 048c 0A1C     		adds	r2, r1, #0
 2272 048e 1A70     		strb	r2, [r3]
 388:lcd.c         ****     tU8  j;
 389:lcd.c         ****     tU32 i;
 390:lcd.c         ****     tU32 len;
 391:lcd.c         ****     const tU8* wData = pData;
 2273              		.loc 1 391 0
 2274 0490 3B6B     		ldr	r3, [r7, #48]
 2275 0492 FB60     		str	r3, [r7, #12]
 392:lcd.c         ****     
ARM GAS  C:\Users\embedded\AppData\Local\Temp\ccbbimIb.s 			page 48


 393:lcd.c         ****     //select controller
 394:lcd.c         ****     selectLCD(TRUE);
 2276              		.loc 1 394 0
 2277 0494 0120     		movs	r0, #1
 2278 0496 FFF7FEFF 		bl	selectLCD
 395:lcd.c         ****     
 396:lcd.c         ****     lcdWindow1(x, y, x + xLen - 1u, y + yLen - 1u);
 2279              		.loc 1 396 0
 2280 049a FA1D     		adds	r2, r7, #7
 2281 049c 7B1D     		adds	r3, r7, #5
 2282 049e 1278     		ldrb	r2, [r2]
 2283 04a0 1B78     		ldrb	r3, [r3]
 2284 04a2 D318     		adds	r3, r2, r3
 2285 04a4 1B06     		lsls	r3, r3, #24
 2286 04a6 1B0E     		lsrs	r3, r3, #24
 2287 04a8 013B     		subs	r3, r3, #1
 2288 04aa 1B06     		lsls	r3, r3, #24
 2289 04ac 1C0E     		lsrs	r4, r3, #24
 2290 04ae BA1D     		adds	r2, r7, #6
 2291 04b0 3B1D     		adds	r3, r7, #4
 2292 04b2 1278     		ldrb	r2, [r2]
 2293 04b4 1B78     		ldrb	r3, [r3]
 2294 04b6 D318     		adds	r3, r2, r3
 2295 04b8 1B06     		lsls	r3, r3, #24
 2296 04ba 1B0E     		lsrs	r3, r3, #24
 2297 04bc 013B     		subs	r3, r3, #1
 2298 04be 1B06     		lsls	r3, r3, #24
 2299 04c0 1A0E     		lsrs	r2, r3, #24
 2300 04c2 BB1D     		adds	r3, r7, #6
 2301 04c4 1978     		ldrb	r1, [r3]
 2302 04c6 FB1D     		adds	r3, r7, #7
 2303 04c8 1878     		ldrb	r0, [r3]
 2304 04ca 1300     		movs	r3, r2
 2305 04cc 2200     		movs	r2, r4
 2306 04ce 00F015F9 		bl	lcdWindow1
 397:lcd.c         ****     
 398:lcd.c         ****     lcdWrcmd(LCD_CMD_RAMWR);    //write memory
 2307              		.loc 1 398 0
 2308 04d2 2C20     		movs	r0, #44
 2309 04d4 FFF7FEFF 		bl	lcdWrcmd
 399:lcd.c         ****     
 400:lcd.c         ****     len = (tU32) xLen  * yLen;
 2310              		.loc 1 400 0
 2311 04d8 7B1D     		adds	r3, r7, #5
 2312 04da 1978     		ldrb	r1, [r3]
 2313 04dc 3A1D     		adds	r2, r7, #4
 2314 04de 1278     		ldrb	r2, [r2]
 2315 04e0 0B00     		movs	r3, r1
 2316 04e2 5343     		muls	r3, r2
 2317 04e4 3B61     		str	r3, [r7, #16]
 401:lcd.c         ****     if (compressionOn == FALSE)
 2318              		.loc 1 401 0
 2319 04e6 2823     		movs	r3, #40
 2320 04e8 FB18     		adds	r3, r7, r3
 2321 04ea 1B78     		ldrb	r3, [r3]
 2322 04ec 002B     		cmp	r3, #0
 2323 04ee 48D1     		bne	.L34
ARM GAS  C:\Users\embedded\AppData\Local\Temp\ccbbimIb.s 			page 49


 402:lcd.c         ****     {
 403:lcd.c         ****         for (i = 0; i < len; i++)
 2324              		.loc 1 403 0
 2325 04f0 0023     		movs	r3, #0
 2326 04f2 7B61     		str	r3, [r7, #20]
 2327 04f4 09E0     		b	.L31
 2328              	.L32:
 404:lcd.c         ****         {
 405:lcd.c         ****             lcdWrdata(*wData++);
 2329              		.loc 1 405 0 discriminator 3
 2330 04f6 FB68     		ldr	r3, [r7, #12]
 2331 04f8 5A1C     		adds	r2, r3, #1
 2332 04fa FA60     		str	r2, [r7, #12]
 2333 04fc 1B78     		ldrb	r3, [r3]
 2334 04fe 1800     		movs	r0, r3
 2335 0500 FFF7FEFF 		bl	lcdWrdata
 403:lcd.c         ****         {
 2336              		.loc 1 403 0 discriminator 3
 2337 0504 7B69     		ldr	r3, [r7, #20]
 2338 0506 0133     		adds	r3, r3, #1
 2339 0508 7B61     		str	r3, [r7, #20]
 2340              	.L31:
 403:lcd.c         ****         {
 2341              		.loc 1 403 0 is_stmt 0 discriminator 1
 2342 050a 7A69     		ldr	r2, [r7, #20]
 2343 050c 3B69     		ldr	r3, [r7, #16]
 2344 050e 9A42     		cmp	r2, r3
 2345 0510 F1D3     		bcc	.L32
 2346 0512 39E0     		b	.L33
 2347              	.L38:
 406:lcd.c         ****         }
 407:lcd.c         ****     }
 408:lcd.c         ****     else
 409:lcd.c         ****     {
 410:lcd.c         ****         while (len > 0u)
 411:lcd.c         ****         {
 412:lcd.c         ****             if (*wData == escapeChar)
 2348              		.loc 1 412 0 is_stmt 1
 2349 0514 FB68     		ldr	r3, [r7, #12]
 2350 0516 1B78     		ldrb	r3, [r3]
 2351 0518 2C22     		movs	r2, #44
 2352 051a BA18     		adds	r2, r7, r2
 2353 051c 1278     		ldrb	r2, [r2]
 2354 051e 9A42     		cmp	r2, r3
 2355 0520 25D1     		bne	.L35
 413:lcd.c         ****             {
 414:lcd.c         ****                 wData++;
 2356              		.loc 1 414 0
 2357 0522 FB68     		ldr	r3, [r7, #12]
 2358 0524 0133     		adds	r3, r3, #1
 2359 0526 FB60     		str	r3, [r7, #12]
 415:lcd.c         ****                 j = *wData;
 2360              		.loc 1 415 0
 2361 0528 0B23     		movs	r3, #11
 2362 052a FB18     		adds	r3, r7, r3
 2363 052c FA68     		ldr	r2, [r7, #12]
 2364 052e 1278     		ldrb	r2, [r2]
ARM GAS  C:\Users\embedded\AppData\Local\Temp\ccbbimIb.s 			page 50


 2365 0530 1A70     		strb	r2, [r3]
 416:lcd.c         ****                 wData++;
 2366              		.loc 1 416 0
 2367 0532 FB68     		ldr	r3, [r7, #12]
 2368 0534 0133     		adds	r3, r3, #1
 2369 0536 FB60     		str	r3, [r7, #12]
 417:lcd.c         ****                 for (i = 0; i < j; i++)
 2370              		.loc 1 417 0
 2371 0538 0023     		movs	r3, #0
 2372 053a 7B61     		str	r3, [r7, #20]
 2373 053c 07E0     		b	.L36
 2374              	.L37:
 418:lcd.c         ****                 {
 419:lcd.c         ****                     lcdWrdata(*wData);
 2375              		.loc 1 419 0 discriminator 3
 2376 053e FB68     		ldr	r3, [r7, #12]
 2377 0540 1B78     		ldrb	r3, [r3]
 2378 0542 1800     		movs	r0, r3
 2379 0544 FFF7FEFF 		bl	lcdWrdata
 417:lcd.c         ****                 for (i = 0; i < j; i++)
 2380              		.loc 1 417 0 discriminator 3
 2381 0548 7B69     		ldr	r3, [r7, #20]
 2382 054a 0133     		adds	r3, r3, #1
 2383 054c 7B61     		str	r3, [r7, #20]
 2384              	.L36:
 417:lcd.c         ****                 for (i = 0; i < j; i++)
 2385              		.loc 1 417 0 is_stmt 0 discriminator 1
 2386 054e 0B23     		movs	r3, #11
 2387 0550 FB18     		adds	r3, r7, r3
 2388 0552 1B78     		ldrb	r3, [r3]
 2389 0554 7A69     		ldr	r2, [r7, #20]
 2390 0556 9A42     		cmp	r2, r3
 2391 0558 F1D3     		bcc	.L37
 420:lcd.c         ****                 }
 421:lcd.c         ****                 wData++;
 2392              		.loc 1 421 0 is_stmt 1
 2393 055a FB68     		ldr	r3, [r7, #12]
 2394 055c 0133     		adds	r3, r3, #1
 2395 055e FB60     		str	r3, [r7, #12]
 422:lcd.c         ****                 len -= j;
 2396              		.loc 1 422 0
 2397 0560 0B23     		movs	r3, #11
 2398 0562 FB18     		adds	r3, r7, r3
 2399 0564 1B78     		ldrb	r3, [r3]
 2400 0566 3A69     		ldr	r2, [r7, #16]
 2401 0568 D31A     		subs	r3, r2, r3
 2402 056a 3B61     		str	r3, [r7, #16]
 2403 056c 09E0     		b	.L34
 2404              	.L35:
 423:lcd.c         ****             }
 424:lcd.c         ****             else
 425:lcd.c         ****             {
 426:lcd.c         ****                 lcdWrdata(*wData++);
 2405              		.loc 1 426 0
 2406 056e FB68     		ldr	r3, [r7, #12]
 2407 0570 5A1C     		adds	r2, r3, #1
 2408 0572 FA60     		str	r2, [r7, #12]
ARM GAS  C:\Users\embedded\AppData\Local\Temp\ccbbimIb.s 			page 51


 2409 0574 1B78     		ldrb	r3, [r3]
 2410 0576 1800     		movs	r0, r3
 2411 0578 FFF7FEFF 		bl	lcdWrdata
 427:lcd.c         ****                 len--;
 2412              		.loc 1 427 0
 2413 057c 3B69     		ldr	r3, [r7, #16]
 2414 057e 013B     		subs	r3, r3, #1
 2415 0580 3B61     		str	r3, [r7, #16]
 2416              	.L34:
 410:lcd.c         ****         {
 2417              		.loc 1 410 0
 2418 0582 3B69     		ldr	r3, [r7, #16]
 2419 0584 002B     		cmp	r3, #0
 2420 0586 C5D1     		bne	.L38
 2421              	.L33:
 428:lcd.c         ****             }
 429:lcd.c         ****         }
 430:lcd.c         ****     }
 431:lcd.c         ****     
 432:lcd.c         ****     //deselect controller
 433:lcd.c         ****     selectLCD(FALSE);
 2422              		.loc 1 433 0
 2423 0588 0020     		movs	r0, #0
 2424 058a FFF7FEFF 		bl	selectLCD
 434:lcd.c         **** }
 2425              		.loc 1 434 0
 2426 058e C046     		nop
 2427 0590 BD46     		mov	sp, r7
 2428 0592 06B0     		add	sp, sp, #24
 2429              		@ sp needed
 2430 0594 B0BC     		pop	{r4, r5, r7}
 2431 0596 01BC     		pop	{r0}
 2432 0598 0047     		bx	r0
 2433              		.cfi_endproc
 2434              	.LFE8:
 2435              		.size	lcdIcon, .-lcdIcon
 2436              		.align	1
 2437              		.global	lcdDrawIcon
 2438              		.syntax unified
 2439              		.code	16
 2440              		.thumb_func
 2441              		.fpu softvfp
 2442              		.type	lcdDrawIcon, %function
 2443              	lcdDrawIcon:
 2444              	.LFB9:
 435:lcd.c         **** 
 436:lcd.c         **** /*
 437:lcd.c         ****  *  @brief			Funckja odpowiadajaca za narysowanie w wyznaczonym obszarze przekazanej mapy bitowej
 438:lcd.c         ****  *
 439:lcd.c         ****  *  @Description	Funckja odpowiadajaca za narysowanie w wyznaczonym obszarze przekazanej mapy bitow
 440:lcd.c         ****  *
 441:lcd.c         ****  *  @param 			[in]    x
 442:lcd.c         ****  *                      Pozycja x obszaru rysowanej mapy bitowej.
 443:lcd.c         ****  *
 444:lcd.c         ****  *  @param 			[in]    y
 445:lcd.c         ****  *                      Pozycja y obszaru rysowanej mapy bitowej.
 446:lcd.c         ****  *
ARM GAS  C:\Users\embedded\AppData\Local\Temp\ccbbimIb.s 			page 52


 447:lcd.c         ****  *  @param 			[in]    width
 448:lcd.c         ****  *                      Szerokosc obszaru rysowanej mapy bitowej.
 449:lcd.c         ****  *
 450:lcd.c         ****  *  @param 			[in]    height
 451:lcd.c         ****  *                      Wysokosc obszaru rysowanej mapy bitowej.
 452:lcd.c         ****  *
 453:lcd.c         ****  *  @param 			[in]    pData
 454:lcd.c         ****  *                      Mapa bitowa w postaci tablicy kolorow.
 455:lcd.c         ****  *
 456:lcd.c         ****  *  @returns  		nic
 457:lcd.c         ****  *
 458:lcd.c         ****  *  @side effects	Przeslanie danych przez magistrale.
 459:lcd.c         ****  */
 460:lcd.c         **** void lcdDrawIcon(tU8 x, tU8 y, tU8 width, tU8 height, const tU8 * pData)
 461:lcd.c         **** {
 2445              		.loc 1 461 0
 2446              		.cfi_startproc
 2447              		@ Function supports interworking.
 2448              		@ args = 4, pretend = 0, frame = 16
 2449              		@ frame_needed = 1, uses_anonymous_args = 0
 2450 059a B0B5     		push	{r4, r5, r7, lr}
 2451              	.LCFI25:
 2452              		.cfi_def_cfa_offset 16
 2453              		.cfi_offset 4, -16
 2454              		.cfi_offset 5, -12
 2455              		.cfi_offset 7, -8
 2456              		.cfi_offset 14, -4
 2457 059c 84B0     		sub	sp, sp, #16
 2458              	.LCFI26:
 2459              		.cfi_def_cfa_offset 32
 2460 059e 00AF     		add	r7, sp, #0
 2461              	.LCFI27:
 2462              		.cfi_def_cfa_register 7
 2463 05a0 0500     		movs	r5, r0
 2464 05a2 0C00     		movs	r4, r1
 2465 05a4 1000     		movs	r0, r2
 2466 05a6 1900     		movs	r1, r3
 2467 05a8 FB1D     		adds	r3, r7, #7
 2468 05aa 2A1C     		adds	r2, r5, #0
 2469 05ac 1A70     		strb	r2, [r3]
 2470 05ae BB1D     		adds	r3, r7, #6
 2471 05b0 221C     		adds	r2, r4, #0
 2472 05b2 1A70     		strb	r2, [r3]
 2473 05b4 7B1D     		adds	r3, r7, #5
 2474 05b6 021C     		adds	r2, r0, #0
 2475 05b8 1A70     		strb	r2, [r3]
 2476 05ba 3B1D     		adds	r3, r7, #4
 2477 05bc 0A1C     		adds	r2, r1, #0
 2478 05be 1A70     		strb	r2, [r3]
 462:lcd.c         **** 	//Wczenie wywietlacza LCD jako slave w transmisji z wykorzystanie SPI
 463:lcd.c         **** 	  selectLCD(TRUE);
 2479              		.loc 1 463 0
 2480 05c0 0120     		movs	r0, #1
 2481 05c2 FFF7FEFF 		bl	selectLCD
 464:lcd.c         **** 
 465:lcd.c         **** 	  //lcdWindow1(x, y, x + xLen - 1, y + yLen - 1);
 466:lcd.c         **** 
ARM GAS  C:\Users\embedded\AppData\Local\Temp\ccbbimIb.s 			page 53


 467:lcd.c         **** 	  //Ustawienie obszaru prostokta do narysowania
 468:lcd.c         **** 	  lcdWrcmd(LCD_CMD_CASET);
 2482              		.loc 1 468 0
 2483 05c6 2A20     		movs	r0, #42
 2484 05c8 FFF7FEFF 		bl	lcdWrcmd
 469:lcd.c         **** 	  lcdWrdata(x);
 2485              		.loc 1 469 0
 2486 05cc FB1D     		adds	r3, r7, #7
 2487 05ce 1B78     		ldrb	r3, [r3]
 2488 05d0 1800     		movs	r0, r3
 2489 05d2 FFF7FEFF 		bl	lcdWrdata
 470:lcd.c         **** 	  lcdWrdata(x + width - 1u);
 2490              		.loc 1 470 0
 2491 05d6 FA1D     		adds	r2, r7, #7
 2492 05d8 7B1D     		adds	r3, r7, #5
 2493 05da 1278     		ldrb	r2, [r2]
 2494 05dc 1B78     		ldrb	r3, [r3]
 2495 05de D318     		adds	r3, r2, r3
 2496 05e0 1B06     		lsls	r3, r3, #24
 2497 05e2 1B0E     		lsrs	r3, r3, #24
 2498 05e4 013B     		subs	r3, r3, #1
 2499 05e6 1B06     		lsls	r3, r3, #24
 2500 05e8 1B0E     		lsrs	r3, r3, #24
 2501 05ea 1800     		movs	r0, r3
 2502 05ec FFF7FEFF 		bl	lcdWrdata
 471:lcd.c         **** 
 472:lcd.c         **** 	  lcdWrcmd(LCD_CMD_PASET);
 2503              		.loc 1 472 0
 2504 05f0 2B20     		movs	r0, #43
 2505 05f2 FFF7FEFF 		bl	lcdWrcmd
 473:lcd.c         **** 	  lcdWrdata(y);
 2506              		.loc 1 473 0
 2507 05f6 BB1D     		adds	r3, r7, #6
 2508 05f8 1B78     		ldrb	r3, [r3]
 2509 05fa 1800     		movs	r0, r3
 2510 05fc FFF7FEFF 		bl	lcdWrdata
 474:lcd.c         **** 	  lcdWrdata(y + height - 1u);
 2511              		.loc 1 474 0
 2512 0600 BA1D     		adds	r2, r7, #6
 2513 0602 3B1D     		adds	r3, r7, #4
 2514 0604 1278     		ldrb	r2, [r2]
 2515 0606 1B78     		ldrb	r3, [r3]
 2516 0608 D318     		adds	r3, r2, r3
 2517 060a 1B06     		lsls	r3, r3, #24
 2518 060c 1B0E     		lsrs	r3, r3, #24
 2519 060e 013B     		subs	r3, r3, #1
 2520 0610 1B06     		lsls	r3, r3, #24
 2521 0612 1B0E     		lsrs	r3, r3, #24
 2522 0614 1800     		movs	r0, r3
 2523 0616 FFF7FEFF 		bl	lcdWrdata
 475:lcd.c         **** 
 476:lcd.c         **** 	  lcdWrcmd(LCD_CMD_RAMWR);    //write memory
 2524              		.loc 1 476 0
 2525 061a 2C20     		movs	r0, #44
 2526 061c FFF7FEFF 		bl	lcdWrcmd
 477:lcd.c         **** 
 478:lcd.c         **** 	  //Wyznaczenie iloci iteracji aby przesa wszystkie dane mapy bitowej
ARM GAS  C:\Users\embedded\AppData\Local\Temp\ccbbimIb.s 			page 54


 479:lcd.c         **** 	  tU32 len = (tU32) width * height;
 2527              		.loc 1 479 0
 2528 0620 7B1D     		adds	r3, r7, #5
 2529 0622 1978     		ldrb	r1, [r3]
 2530 0624 3A1D     		adds	r2, r7, #4
 2531 0626 1278     		ldrb	r2, [r2]
 2532 0628 0B00     		movs	r3, r1
 2533 062a 5343     		muls	r3, r2
 2534 062c BB60     		str	r3, [r7, #8]
 480:lcd.c         **** 	  //Ptla przesyajca bajty danych kolorw
 481:lcd.c         **** 	  tU32 i = 0;
 2535              		.loc 1 481 0
 2536 062e 0023     		movs	r3, #0
 2537 0630 FB60     		str	r3, [r7, #12]
 482:lcd.c         **** 	  for(; i < len; i++)
 2538              		.loc 1 482 0
 2539 0632 09E0     		b	.L40
 2540              	.L41:
 483:lcd.c         **** 	  {
 484:lcd.c         **** 		//Przesanie koloru
 485:lcd.c         **** 	    lcdWrdata(pData[i]);
 2541              		.loc 1 485 0 discriminator 2
 2542 0634 3A6A     		ldr	r2, [r7, #32]
 2543 0636 FB68     		ldr	r3, [r7, #12]
 2544 0638 D318     		adds	r3, r2, r3
 2545 063a 1B78     		ldrb	r3, [r3]
 2546 063c 1800     		movs	r0, r3
 2547 063e FFF7FEFF 		bl	lcdWrdata
 482:lcd.c         **** 	  for(; i < len; i++)
 2548              		.loc 1 482 0 discriminator 2
 2549 0642 FB68     		ldr	r3, [r7, #12]
 2550 0644 0133     		adds	r3, r3, #1
 2551 0646 FB60     		str	r3, [r7, #12]
 2552              	.L40:
 482:lcd.c         **** 	  for(; i < len; i++)
 2553              		.loc 1 482 0 is_stmt 0 discriminator 1
 2554 0648 FA68     		ldr	r2, [r7, #12]
 2555 064a BB68     		ldr	r3, [r7, #8]
 2556 064c 9A42     		cmp	r2, r3
 2557 064e F1D3     		bcc	.L41
 486:lcd.c         **** 	  }
 487:lcd.c         **** 
 488:lcd.c         **** 	  //Wyczenie wywietlacza LCD jako slave w transmisji z wykorzystanie SPI
 489:lcd.c         **** 	  selectLCD(FALSE);
 2558              		.loc 1 489 0 is_stmt 1
 2559 0650 0020     		movs	r0, #0
 2560 0652 FFF7FEFF 		bl	selectLCD
 490:lcd.c         **** }
 2561              		.loc 1 490 0
 2562 0656 C046     		nop
 2563 0658 BD46     		mov	sp, r7
 2564 065a 04B0     		add	sp, sp, #16
 2565              		@ sp needed
 2566 065c B0BC     		pop	{r4, r5, r7}
 2567 065e 01BC     		pop	{r0}
 2568 0660 0047     		bx	r0
 2569              		.cfi_endproc
ARM GAS  C:\Users\embedded\AppData\Local\Temp\ccbbimIb.s 			page 55


 2570              	.LFE9:
 2571              		.size	lcdDrawIcon, .-lcdDrawIcon
 2572              		.align	1
 2573              		.global	lcdGotoxy
 2574              		.syntax unified
 2575              		.code	16
 2576              		.thumb_func
 2577              		.fpu softvfp
 2578              		.type	lcdGotoxy, %function
 2579              	lcdGotoxy:
 2580              	.LFB10:
 491:lcd.c         **** 
 492:lcd.c         **** /*
 493:lcd.c         ****  *  @brief			Funckja odpowiedzialna za ustawienie pozycji XY.
 494:lcd.c         ****  *
 495:lcd.c         ****  *  @Description	Funckja odpowiedzialna za ustawienie pozycji XY (dodatkowo tworzy okno).
 496:lcd.c         ****  *
 497:lcd.c         ****  *  @param 			brak
 498:lcd.c         ****  *
 499:lcd.c         ****  *  @returns  		nic
 500:lcd.c         ****  *
 501:lcd.c         ****  *  @side effects	brak
 502:lcd.c         ****  */
 503:lcd.c         **** void lcdGotoxy(tU8 x, tU8 y)
 504:lcd.c         **** {
 2581              		.loc 1 504 0
 2582              		.cfi_startproc
 2583              		@ Function supports interworking.
 2584              		@ args = 0, pretend = 0, frame = 8
 2585              		@ frame_needed = 1, uses_anonymous_args = 0
 2586 0662 80B5     		push	{r7, lr}
 2587              	.LCFI28:
 2588              		.cfi_def_cfa_offset 8
 2589              		.cfi_offset 7, -8
 2590              		.cfi_offset 14, -4
 2591 0664 82B0     		sub	sp, sp, #8
 2592              	.LCFI29:
 2593              		.cfi_def_cfa_offset 16
 2594 0666 00AF     		add	r7, sp, #0
 2595              	.LCFI30:
 2596              		.cfi_def_cfa_register 7
 2597 0668 0200     		movs	r2, r0
 2598 066a FB1D     		adds	r3, r7, #7
 2599 066c 1A70     		strb	r2, [r3]
 2600 066e BB1D     		adds	r3, r7, #6
 2601 0670 0A1C     		adds	r2, r1, #0
 2602 0672 1A70     		strb	r2, [r3]
 505:lcd.c         ****     lcd_x = x;
 2603              		.loc 1 505 0
 2604 0674 0A4B     		ldr	r3, .L43
 2605 0676 FA1D     		adds	r2, r7, #7
 2606 0678 1278     		ldrb	r2, [r2]
 2607 067a 1A70     		strb	r2, [r3]
 506:lcd.c         ****     lcd_y = y;
 2608              		.loc 1 506 0
 2609 067c 094B     		ldr	r3, .L43+4
 2610 067e BA1D     		adds	r2, r7, #6
ARM GAS  C:\Users\embedded\AppData\Local\Temp\ccbbimIb.s 			page 56


 2611 0680 1278     		ldrb	r2, [r2]
 2612 0682 1A70     		strb	r2, [r3]
 507:lcd.c         ****     lcdWindow(x, y, 129, 129);
 2613              		.loc 1 507 0
 2614 0684 BB1D     		adds	r3, r7, #6
 2615 0686 1978     		ldrb	r1, [r3]
 2616 0688 FB1D     		adds	r3, r7, #7
 2617 068a 1878     		ldrb	r0, [r3]
 2618 068c 8123     		movs	r3, #129
 2619 068e 8122     		movs	r2, #129
 2620 0690 00F00AF8 		bl	lcdWindow
 508:lcd.c         **** }
 2621              		.loc 1 508 0
 2622 0694 C046     		nop
 2623 0696 BD46     		mov	sp, r7
 2624 0698 02B0     		add	sp, sp, #8
 2625              		@ sp needed
 2626 069a 80BC     		pop	{r7}
 2627 069c 01BC     		pop	{r0}
 2628 069e 0047     		bx	r0
 2629              	.L44:
 2630              		.align	2
 2631              	.L43:
 2632 06a0 00000000 		.word	lcd_x
 2633 06a4 01000000 		.word	lcd_y
 2634              		.cfi_endproc
 2635              	.LFE10:
 2636              		.size	lcdGotoxy, .-lcdGotoxy
 2637              		.align	1
 2638              		.syntax unified
 2639              		.code	16
 2640              		.thumb_func
 2641              		.fpu softvfp
 2642              		.type	lcdWindow, %function
 2643              	lcdWindow:
 2644              	.LFB11:
 509:lcd.c         **** 
 510:lcd.c         **** /*
 511:lcd.c         ****  *  @brief			Funckja odpowiedzialna za ustalenie obszaru wywitlacza obecnie edytowanego
 512:lcd.c         ****  *
 513:lcd.c         ****  *  @Description	Funckja odpowiedzialna za ustalenie obszaru wywitlacza obecnie edytowanego
 514:lcd.c         ****  *
 515:lcd.c         ****  *  @param 			[in]    xp
 516:lcd.c         ****  *                      Pocztkowa pozycja x tworzonego okna.
 517:lcd.c         ****  *
 518:lcd.c         ****  *  @param 			[in]    yp
 519:lcd.c         ****  *                      Pocztkowa pozycja y tworzonego okna.
 520:lcd.c         ****  *
 521:lcd.c         ****  *  @param 			[in]    xe
 522:lcd.c         ****  *                      Koncowa pozycja x tworzonego okna.
 523:lcd.c         ****  *
 524:lcd.c         ****  *  @param 			[in]    ye
 525:lcd.c         ****  *                      Koncowa pozycja y tworzonego okna.
 526:lcd.c         ****  *
 527:lcd.c         ****  *  @returns  		nic
 528:lcd.c         ****  *
 529:lcd.c         ****  *  @side effects	brak
ARM GAS  C:\Users\embedded\AppData\Local\Temp\ccbbimIb.s 			page 57


 530:lcd.c         ****  */
 531:lcd.c         **** static void lcdWindow(tU8 xp, tU8 yp, tU8 xe, tU8 ye)
 532:lcd.c         **** {
 2645              		.loc 1 532 0
 2646              		.cfi_startproc
 2647              		@ Function supports interworking.
 2648              		@ args = 0, pretend = 0, frame = 8
 2649              		@ frame_needed = 1, uses_anonymous_args = 0
 2650 06a8 B0B5     		push	{r4, r5, r7, lr}
 2651              	.LCFI31:
 2652              		.cfi_def_cfa_offset 16
 2653              		.cfi_offset 4, -16
 2654              		.cfi_offset 5, -12
 2655              		.cfi_offset 7, -8
 2656              		.cfi_offset 14, -4
 2657 06aa 82B0     		sub	sp, sp, #8
 2658              	.LCFI32:
 2659              		.cfi_def_cfa_offset 24
 2660 06ac 00AF     		add	r7, sp, #0
 2661              	.LCFI33:
 2662              		.cfi_def_cfa_register 7
 2663 06ae 0500     		movs	r5, r0
 2664 06b0 0C00     		movs	r4, r1
 2665 06b2 1000     		movs	r0, r2
 2666 06b4 1900     		movs	r1, r3
 2667 06b6 FB1D     		adds	r3, r7, #7
 2668 06b8 2A1C     		adds	r2, r5, #0
 2669 06ba 1A70     		strb	r2, [r3]
 2670 06bc BB1D     		adds	r3, r7, #6
 2671 06be 221C     		adds	r2, r4, #0
 2672 06c0 1A70     		strb	r2, [r3]
 2673 06c2 7B1D     		adds	r3, r7, #5
 2674 06c4 021C     		adds	r2, r0, #0
 2675 06c6 1A70     		strb	r2, [r3]
 2676 06c8 3B1D     		adds	r3, r7, #4
 2677 06ca 0A1C     		adds	r2, r1, #0
 2678 06cc 1A70     		strb	r2, [r3]
 533:lcd.c         ****     //select controller
 534:lcd.c         ****     selectLCD(TRUE);
 2679              		.loc 1 534 0
 2680 06ce 0120     		movs	r0, #1
 2681 06d0 FFF7FEFF 		bl	selectLCD
 535:lcd.c         ****     
 536:lcd.c         ****     lcdWindow1(xp, yp, xe, ye);
 2682              		.loc 1 536 0
 2683 06d4 3B1D     		adds	r3, r7, #4
 2684 06d6 1C78     		ldrb	r4, [r3]
 2685 06d8 7B1D     		adds	r3, r7, #5
 2686 06da 1A78     		ldrb	r2, [r3]
 2687 06dc BB1D     		adds	r3, r7, #6
 2688 06de 1978     		ldrb	r1, [r3]
 2689 06e0 FB1D     		adds	r3, r7, #7
 2690 06e2 1878     		ldrb	r0, [r3]
 2691 06e4 2300     		movs	r3, r4
 2692 06e6 00F009F8 		bl	lcdWindow1
 537:lcd.c         ****     
 538:lcd.c         ****     //deselect controller
ARM GAS  C:\Users\embedded\AppData\Local\Temp\ccbbimIb.s 			page 58


 539:lcd.c         ****     selectLCD(FALSE);
 2693              		.loc 1 539 0
 2694 06ea 0020     		movs	r0, #0
 2695 06ec FFF7FEFF 		bl	selectLCD
 540:lcd.c         **** }
 2696              		.loc 1 540 0
 2697 06f0 C046     		nop
 2698 06f2 BD46     		mov	sp, r7
 2699 06f4 02B0     		add	sp, sp, #8
 2700              		@ sp needed
 2701 06f6 B0BC     		pop	{r4, r5, r7}
 2702 06f8 01BC     		pop	{r0}
 2703 06fa 0047     		bx	r0
 2704              		.cfi_endproc
 2705              	.LFE11:
 2706              		.size	lcdWindow, .-lcdWindow
 2707              		.align	1
 2708              		.syntax unified
 2709              		.code	16
 2710              		.thumb_func
 2711              		.fpu softvfp
 2712              		.type	lcdWindow1, %function
 2713              	lcdWindow1:
 2714              	.LFB12:
 541:lcd.c         **** 
 542:lcd.c         **** 
 543:lcd.c         **** /*****************************************************************************
 544:lcd.c         ****  *
 545:lcd.c         ****  * Description:
 546:lcd.c         ****  *    Initialize LCD controller for a window (to write in).
 547:lcd.c         ****  *    Set start xy-position and xy-length
 548:lcd.c         ****  *    No select/deselect of LCD controller.
 549:lcd.c         ****  *
 550:lcd.c         ****  ****************************************************************************/
 551:lcd.c         **** static void lcdWindow1(tU8 xp, tU8 yp, tU8 xe, tU8 ye)
 552:lcd.c         **** {
 2715              		.loc 1 552 0
 2716              		.cfi_startproc
 2717              		@ Function supports interworking.
 2718              		@ args = 0, pretend = 0, frame = 8
 2719              		@ frame_needed = 1, uses_anonymous_args = 0
 2720 06fc B0B5     		push	{r4, r5, r7, lr}
 2721              	.LCFI34:
 2722              		.cfi_def_cfa_offset 16
 2723              		.cfi_offset 4, -16
 2724              		.cfi_offset 5, -12
 2725              		.cfi_offset 7, -8
 2726              		.cfi_offset 14, -4
 2727 06fe 82B0     		sub	sp, sp, #8
 2728              	.LCFI35:
 2729              		.cfi_def_cfa_offset 24
 2730 0700 00AF     		add	r7, sp, #0
 2731              	.LCFI36:
 2732              		.cfi_def_cfa_register 7
 2733 0702 0500     		movs	r5, r0
 2734 0704 0C00     		movs	r4, r1
 2735 0706 1000     		movs	r0, r2
ARM GAS  C:\Users\embedded\AppData\Local\Temp\ccbbimIb.s 			page 59


 2736 0708 1900     		movs	r1, r3
 2737 070a FB1D     		adds	r3, r7, #7
 2738 070c 2A1C     		adds	r2, r5, #0
 2739 070e 1A70     		strb	r2, [r3]
 2740 0710 BB1D     		adds	r3, r7, #6
 2741 0712 221C     		adds	r2, r4, #0
 2742 0714 1A70     		strb	r2, [r3]
 2743 0716 7B1D     		adds	r3, r7, #5
 2744 0718 021C     		adds	r2, r0, #0
 2745 071a 1A70     		strb	r2, [r3]
 2746 071c 3B1D     		adds	r3, r7, #4
 2747 071e 0A1C     		adds	r2, r1, #0
 2748 0720 1A70     		strb	r2, [r3]
 553:lcd.c         ****     lcdWrcmd(LCD_CMD_CASET);    //set X
 2749              		.loc 1 553 0
 2750 0722 2A20     		movs	r0, #42
 2751 0724 FFF7FEFF 		bl	lcdWrcmd
 554:lcd.c         ****     lcdWrdata(xp + 2u);
 2752              		.loc 1 554 0
 2753 0728 FB1D     		adds	r3, r7, #7
 2754 072a 1B78     		ldrb	r3, [r3]
 2755 072c 0233     		adds	r3, r3, #2
 2756 072e 1B06     		lsls	r3, r3, #24
 2757 0730 1B0E     		lsrs	r3, r3, #24
 2758 0732 1800     		movs	r0, r3
 2759 0734 FFF7FEFF 		bl	lcdWrdata
 555:lcd.c         ****     lcdWrdata(xe + 2u);
 2760              		.loc 1 555 0
 2761 0738 7B1D     		adds	r3, r7, #5
 2762 073a 1B78     		ldrb	r3, [r3]
 2763 073c 0233     		adds	r3, r3, #2
 2764 073e 1B06     		lsls	r3, r3, #24
 2765 0740 1B0E     		lsrs	r3, r3, #24
 2766 0742 1800     		movs	r0, r3
 2767 0744 FFF7FEFF 		bl	lcdWrdata
 556:lcd.c         ****     
 557:lcd.c         ****     lcdWrcmd(LCD_CMD_PASET);    //set Y
 2768              		.loc 1 557 0
 2769 0748 2B20     		movs	r0, #43
 2770 074a FFF7FEFF 		bl	lcdWrcmd
 558:lcd.c         ****     lcdWrdata(yp + 2u);
 2771              		.loc 1 558 0
 2772 074e BB1D     		adds	r3, r7, #6
 2773 0750 1B78     		ldrb	r3, [r3]
 2774 0752 0233     		adds	r3, r3, #2
 2775 0754 1B06     		lsls	r3, r3, #24
 2776 0756 1B0E     		lsrs	r3, r3, #24
 2777 0758 1800     		movs	r0, r3
 2778 075a FFF7FEFF 		bl	lcdWrdata
 559:lcd.c         ****     lcdWrdata(ye + 2u);
 2779              		.loc 1 559 0
 2780 075e 3B1D     		adds	r3, r7, #4
 2781 0760 1B78     		ldrb	r3, [r3]
 2782 0762 0233     		adds	r3, r3, #2
 2783 0764 1B06     		lsls	r3, r3, #24
 2784 0766 1B0E     		lsrs	r3, r3, #24
 2785 0768 1800     		movs	r0, r3
ARM GAS  C:\Users\embedded\AppData\Local\Temp\ccbbimIb.s 			page 60


 2786 076a FFF7FEFF 		bl	lcdWrdata
 560:lcd.c         **** }
 2787              		.loc 1 560 0
 2788 076e C046     		nop
 2789 0770 BD46     		mov	sp, r7
 2790 0772 02B0     		add	sp, sp, #8
 2791              		@ sp needed
 2792 0774 B0BC     		pop	{r4, r5, r7}
 2793 0776 01BC     		pop	{r0}
 2794 0778 0047     		bx	r0
 2795              		.cfi_endproc
 2796              	.LFE12:
 2797              		.size	lcdWindow1, .-lcdWindow1
 2798              		.align	1
 2799              		.syntax unified
 2800              		.code	16
 2801              		.thumb_func
 2802              		.fpu softvfp
 2803              		.type	lcdNewline, %function
 2804              	lcdNewline:
 2805              	.LFB13:
 561:lcd.c         **** 
 562:lcd.c         **** /*
 563:lcd.c         ****  *  @brief			Funckja odpowiedzialna za przejcie do nowej lini podczas pisania.
 564:lcd.c         ****  *
 565:lcd.c         ****  *  @Description	Funckja odpowiedzialna za przejcie do nowej lini podczas pisania.
 566:lcd.c         ****  *
 567:lcd.c         ****  *  @param 			brak
 568:lcd.c         ****  *
 569:lcd.c         ****  *  @returns  		nic
 570:lcd.c         ****  *
 571:lcd.c         ****  *  @side effects	brak
 572:lcd.c         ****  */
 573:lcd.c         **** static void lcdNewline(void)
 574:lcd.c         **** {
 2806              		.loc 1 574 0
 2807              		.cfi_startproc
 2808              		@ Function supports interworking.
 2809              		@ args = 0, pretend = 0, frame = 0
 2810              		@ frame_needed = 1, uses_anonymous_args = 0
 2811 077a 80B5     		push	{r7, lr}
 2812              	.LCFI37:
 2813              		.cfi_def_cfa_offset 8
 2814              		.cfi_offset 7, -8
 2815              		.cfi_offset 14, -4
 2816 077c 00AF     		add	r7, sp, #0
 2817              	.LCFI38:
 2818              		.cfi_def_cfa_register 7
 575:lcd.c         ****     lcd_x   =  0u;
 2819              		.loc 1 575 0
 2820 077e 0B4B     		ldr	r3, .L50
 2821 0780 0022     		movs	r2, #0
 2822 0782 1A70     		strb	r2, [r3]
 576:lcd.c         ****     lcd_y   += 14u;
 2823              		.loc 1 576 0
 2824 0784 0A4B     		ldr	r3, .L50+4
 2825 0786 1B78     		ldrb	r3, [r3]
ARM GAS  C:\Users\embedded\AppData\Local\Temp\ccbbimIb.s 			page 61


 2826 0788 0E33     		adds	r3, r3, #14
 2827 078a 1B06     		lsls	r3, r3, #24
 2828 078c 1A0E     		lsrs	r2, r3, #24
 2829 078e 084B     		ldr	r3, .L50+4
 2830 0790 1A70     		strb	r2, [r3]
 577:lcd.c         ****     if (lcd_y >= 126u)
 2831              		.loc 1 577 0
 2832 0792 074B     		ldr	r3, .L50+4
 2833 0794 1B78     		ldrb	r3, [r3]
 2834 0796 7D2B     		cmp	r3, #125
 2835 0798 02D9     		bls	.L49
 578:lcd.c         ****     {
 579:lcd.c         ****         lcd_y = 126u;
 2836              		.loc 1 579 0
 2837 079a 054B     		ldr	r3, .L50+4
 2838 079c 7E22     		movs	r2, #126
 2839 079e 1A70     		strb	r2, [r3]
 2840              	.L49:
 580:lcd.c         ****     }
 581:lcd.c         **** }
 2841              		.loc 1 581 0
 2842 07a0 C046     		nop
 2843 07a2 BD46     		mov	sp, r7
 2844              		@ sp needed
 2845 07a4 80BC     		pop	{r7}
 2846 07a6 01BC     		pop	{r0}
 2847 07a8 0047     		bx	r0
 2848              	.L51:
 2849 07aa C046     		.align	2
 2850              	.L50:
 2851 07ac 00000000 		.word	lcd_x
 2852 07b0 01000000 		.word	lcd_y
 2853              		.cfi_endproc
 2854              	.LFE13:
 2855              		.size	lcdNewline, .-lcdNewline
 2856              		.align	1
 2857              		.syntax unified
 2858              		.code	16
 2859              		.thumb_func
 2860              		.fpu softvfp
 2861              		.type	lcdData, %function
 2862              	lcdData:
 2863              	.LFB14:
 582:lcd.c         **** 
 583:lcd.c         **** /*
 584:lcd.c         ****  *  @brief			Funckja odpowiedzialna za wyswietlenie pojedynczego znaku.
 585:lcd.c         ****  *
 586:lcd.c         ****  *  @Description	Funckja odpowiedzialna za wyswietlenie pojedynczego znaku, na obecnej pozycji xy, 
 587:lcd.c         ****  *
 588:lcd.c         ****  *  @param 			[in]    data
 589:lcd.c         ****  *                      Znak do wyswietlenia.
 590:lcd.c         ****  *
 591:lcd.c         ****  *  @returns  		nic
 592:lcd.c         ****  *
 593:lcd.c         ****  *  @side effects	brak
 594:lcd.c         ****  */
 595:lcd.c         **** static void lcdData(tU8 data)
ARM GAS  C:\Users\embedded\AppData\Local\Temp\ccbbimIb.s 			page 62


 596:lcd.c         **** {
 2864              		.loc 1 596 0
 2865              		.cfi_startproc
 2866              		@ Function supports interworking.
 2867              		@ args = 0, pretend = 0, frame = 16
 2868              		@ frame_needed = 1, uses_anonymous_args = 0
 2869 07b4 90B5     		push	{r4, r7, lr}
 2870              	.LCFI39:
 2871              		.cfi_def_cfa_offset 12
 2872              		.cfi_offset 4, -12
 2873              		.cfi_offset 7, -8
 2874              		.cfi_offset 14, -4
 2875 07b6 85B0     		sub	sp, sp, #20
 2876              	.LCFI40:
 2877              		.cfi_def_cfa_offset 32
 2878 07b8 00AF     		add	r7, sp, #0
 2879              	.LCFI41:
 2880              		.cfi_def_cfa_register 7
 2881 07ba 0200     		movs	r2, r0
 2882 07bc FB1D     		adds	r3, r7, #7
 2883 07be 1A70     		strb	r2, [r3]
 597:lcd.c         ****     tU8 fData = data;
 2884              		.loc 1 597 0
 2885 07c0 0824     		movs	r4, #8
 2886 07c2 3B19     		adds	r3, r7, r4
 2887 07c4 FA1D     		adds	r2, r7, #7
 2888 07c6 1278     		ldrb	r2, [r2]
 2889 07c8 1A70     		strb	r2, [r3]
 598:lcd.c         ****     //select controller
 599:lcd.c         ****     selectLCD(TRUE);
 2890              		.loc 1 599 0
 2891 07ca 0120     		movs	r0, #1
 2892 07cc FFF7FEFF 		bl	selectLCD
 600:lcd.c         ****     
 601:lcd.c         ****     if (fData <= 127u)
 2893              		.loc 1 601 0
 2894 07d0 3B19     		adds	r3, r7, r4
 2895 07d2 1B78     		ldrb	r3, [r3]
 2896 07d4 1B06     		lsls	r3, r3, #24
 2897 07d6 1B16     		asrs	r3, r3, #24
 2898 07d8 00D5     		bpl	.LCB1235
 2899 07da 76E0     		b	.L53	@long jump
 2900              	.LCB1235:
 2901              	.LBB2:
 602:lcd.c         ****     {
 603:lcd.c         ****         tU32 mapOffset;
 604:lcd.c         ****         tU8  i;
 605:lcd.c         ****         tU8  j;
 606:lcd.c         ****         tU8  byteToShift;
 607:lcd.c         ****         
 608:lcd.c         ****         fData -= 30u;
 2902              		.loc 1 608 0
 2903 07dc 0821     		movs	r1, #8
 2904 07de 7B18     		adds	r3, r7, r1
 2905 07e0 7A18     		adds	r2, r7, r1
 2906 07e2 1278     		ldrb	r2, [r2]
 2907 07e4 1E3A     		subs	r2, r2, #30
ARM GAS  C:\Users\embedded\AppData\Local\Temp\ccbbimIb.s 			page 63


 2908 07e6 1A70     		strb	r2, [r3]
 609:lcd.c         ****         mapOffset = 14u * (tU32) fData;
 2909              		.loc 1 609 0
 2910 07e8 7B18     		adds	r3, r7, r1
 2911 07ea 1A78     		ldrb	r2, [r3]
 2912 07ec 1300     		movs	r3, r2
 2913 07ee DB00     		lsls	r3, r3, #3
 2914 07f0 9B1A     		subs	r3, r3, r2
 2915 07f2 5B00     		lsls	r3, r3, #1
 2916 07f4 FB60     		str	r3, [r7, #12]
 610:lcd.c         ****         
 611:lcd.c         ****         lcdWrcmd(LCD_CMD_CASET);
 2917              		.loc 1 611 0
 2918 07f6 2A20     		movs	r0, #42
 2919 07f8 FFF7FEFF 		bl	lcdWrcmd
 612:lcd.c         ****         lcdWrdata(lcd_x + 2u);
 2920              		.loc 1 612 0
 2921 07fc 3B4B     		ldr	r3, .L60
 2922 07fe 1B78     		ldrb	r3, [r3]
 2923 0800 0233     		adds	r3, r3, #2
 2924 0802 1B06     		lsls	r3, r3, #24
 2925 0804 1B0E     		lsrs	r3, r3, #24
 2926 0806 1800     		movs	r0, r3
 2927 0808 FFF7FEFF 		bl	lcdWrdata
 613:lcd.c         ****         lcdWrdata(lcd_x + 9u);
 2928              		.loc 1 613 0
 2929 080c 374B     		ldr	r3, .L60
 2930 080e 1B78     		ldrb	r3, [r3]
 2931 0810 0933     		adds	r3, r3, #9
 2932 0812 1B06     		lsls	r3, r3, #24
 2933 0814 1B0E     		lsrs	r3, r3, #24
 2934 0816 1800     		movs	r0, r3
 2935 0818 FFF7FEFF 		bl	lcdWrdata
 614:lcd.c         ****         lcdWrcmd(LCD_CMD_PASET);
 2936              		.loc 1 614 0
 2937 081c 2B20     		movs	r0, #43
 2938 081e FFF7FEFF 		bl	lcdWrcmd
 615:lcd.c         ****         lcdWrdata(lcd_y + 2u);
 2939              		.loc 1 615 0
 2940 0822 334B     		ldr	r3, .L60+4
 2941 0824 1B78     		ldrb	r3, [r3]
 2942 0826 0233     		adds	r3, r3, #2
 2943 0828 1B06     		lsls	r3, r3, #24
 2944 082a 1B0E     		lsrs	r3, r3, #24
 2945 082c 1800     		movs	r0, r3
 2946 082e FFF7FEFF 		bl	lcdWrdata
 616:lcd.c         ****         lcdWrdata(lcd_y + 15u);
 2947              		.loc 1 616 0
 2948 0832 2F4B     		ldr	r3, .L60+4
 2949 0834 1B78     		ldrb	r3, [r3]
 2950 0836 0F33     		adds	r3, r3, #15
 2951 0838 1B06     		lsls	r3, r3, #24
 2952 083a 1B0E     		lsrs	r3, r3, #24
 2953 083c 1800     		movs	r0, r3
 2954 083e FFF7FEFF 		bl	lcdWrdata
 617:lcd.c         ****         lcdWrcmd(LCD_CMD_RAMWR);
 2955              		.loc 1 617 0
ARM GAS  C:\Users\embedded\AppData\Local\Temp\ccbbimIb.s 			page 64


 2956 0842 2C20     		movs	r0, #44
 2957 0844 FFF7FEFF 		bl	lcdWrcmd
 618:lcd.c         ****         
 619:lcd.c         ****         for(i=0; i < 14u; i++)
 2958              		.loc 1 619 0
 2959 0848 0B23     		movs	r3, #11
 2960 084a FB18     		adds	r3, r7, r3
 2961 084c 0022     		movs	r2, #0
 2962 084e 1A70     		strb	r2, [r3]
 2963 0850 36E0     		b	.L54
 2964              	.L59:
 620:lcd.c         ****         {
 621:lcd.c         ****             byteToShift = charMap[mapOffset];
 2965              		.loc 1 621 0
 2966 0852 0923     		movs	r3, #9
 2967 0854 FB18     		adds	r3, r7, r3
 2968 0856 2749     		ldr	r1, .L60+8
 2969 0858 FA68     		ldr	r2, [r7, #12]
 2970 085a 8A18     		adds	r2, r1, r2
 2971 085c 1278     		ldrb	r2, [r2]
 2972 085e 1A70     		strb	r2, [r3]
 622:lcd.c         ****             mapOffset++;
 2973              		.loc 1 622 0
 2974 0860 FB68     		ldr	r3, [r7, #12]
 2975 0862 0133     		adds	r3, r3, #1
 2976 0864 FB60     		str	r3, [r7, #12]
 623:lcd.c         **** 
 624:lcd.c         ****             for(j=0; j < 8u; j++)
 2977              		.loc 1 624 0
 2978 0866 0A23     		movs	r3, #10
 2979 0868 FB18     		adds	r3, r7, r3
 2980 086a 0022     		movs	r2, #0
 2981 086c 1A70     		strb	r2, [r3]
 2982 086e 1CE0     		b	.L55
 2983              	.L58:
 625:lcd.c         ****             {
 626:lcd.c         ****                 if ((byteToShift & 0x80u) != 0u)
 2984              		.loc 1 626 0
 2985 0870 0923     		movs	r3, #9
 2986 0872 FB18     		adds	r3, r7, r3
 2987 0874 1B78     		ldrb	r3, [r3]
 2988 0876 1B06     		lsls	r3, r3, #24
 2989 0878 1B16     		asrs	r3, r3, #24
 2990 087a 05D5     		bpl	.L56
 627:lcd.c         ****                 {
 628:lcd.c         ****                     lcdWrdata(textColor);
 2991              		.loc 1 628 0
 2992 087c 1E4B     		ldr	r3, .L60+12
 2993 087e 1B78     		ldrb	r3, [r3]
 2994 0880 1800     		movs	r0, r3
 2995 0882 FFF7FEFF 		bl	lcdWrdata
 2996 0886 04E0     		b	.L57
 2997              	.L56:
 629:lcd.c         ****                 }
 630:lcd.c         ****                 else
 631:lcd.c         ****                 {
 632:lcd.c         ****                     lcdWrdata(bkgColor);
ARM GAS  C:\Users\embedded\AppData\Local\Temp\ccbbimIb.s 			page 65


 2998              		.loc 1 632 0
 2999 0888 1C4B     		ldr	r3, .L60+16
 3000 088a 1B78     		ldrb	r3, [r3]
 3001 088c 1800     		movs	r0, r3
 3002 088e FFF7FEFF 		bl	lcdWrdata
 3003              	.L57:
 633:lcd.c         ****                 }
 634:lcd.c         ****                 byteToShift <<= 1;
 3004              		.loc 1 634 0 discriminator 2
 3005 0892 0923     		movs	r3, #9
 3006 0894 FA18     		adds	r2, r7, r3
 3007 0896 FB18     		adds	r3, r7, r3
 3008 0898 1B78     		ldrb	r3, [r3]
 3009 089a DB18     		adds	r3, r3, r3
 3010 089c 1370     		strb	r3, [r2]
 624:lcd.c         ****             {
 3011              		.loc 1 624 0 discriminator 2
 3012 089e 0A21     		movs	r1, #10
 3013 08a0 7B18     		adds	r3, r7, r1
 3014 08a2 1A78     		ldrb	r2, [r3]
 3015 08a4 7B18     		adds	r3, r7, r1
 3016 08a6 0132     		adds	r2, r2, #1
 3017 08a8 1A70     		strb	r2, [r3]
 3018              	.L55:
 624:lcd.c         ****             {
 3019              		.loc 1 624 0 is_stmt 0 discriminator 1
 3020 08aa 0A23     		movs	r3, #10
 3021 08ac FB18     		adds	r3, r7, r3
 3022 08ae 1B78     		ldrb	r3, [r3]
 3023 08b0 072B     		cmp	r3, #7
 3024 08b2 DDD9     		bls	.L58
 619:lcd.c         ****         {
 3025              		.loc 1 619 0 is_stmt 1 discriminator 2
 3026 08b4 0B21     		movs	r1, #11
 3027 08b6 7B18     		adds	r3, r7, r1
 3028 08b8 1A78     		ldrb	r2, [r3]
 3029 08ba 7B18     		adds	r3, r7, r1
 3030 08bc 0132     		adds	r2, r2, #1
 3031 08be 1A70     		strb	r2, [r3]
 3032              	.L54:
 619:lcd.c         ****         {
 3033              		.loc 1 619 0 is_stmt 0 discriminator 1
 3034 08c0 0B23     		movs	r3, #11
 3035 08c2 FB18     		adds	r3, r7, r3
 3036 08c4 1B78     		ldrb	r3, [r3]
 3037 08c6 0D2B     		cmp	r3, #13
 3038 08c8 C3D9     		bls	.L59
 3039              	.L53:
 3040              	.LBE2:
 635:lcd.c         ****             }
 636:lcd.c         ****         }
 637:lcd.c         ****     }
 638:lcd.c         ****     
 639:lcd.c         ****     //deselect controller
 640:lcd.c         ****     selectLCD(FALSE);
 3041              		.loc 1 640 0 is_stmt 1
 3042 08ca 0020     		movs	r0, #0
ARM GAS  C:\Users\embedded\AppData\Local\Temp\ccbbimIb.s 			page 66


 3043 08cc FFF7FEFF 		bl	selectLCD
 641:lcd.c         ****     
 642:lcd.c         ****     lcd_x += 8u;
 3044              		.loc 1 642 0
 3045 08d0 064B     		ldr	r3, .L60
 3046 08d2 1B78     		ldrb	r3, [r3]
 3047 08d4 0833     		adds	r3, r3, #8
 3048 08d6 1B06     		lsls	r3, r3, #24
 3049 08d8 1A0E     		lsrs	r2, r3, #24
 3050 08da 044B     		ldr	r3, .L60
 3051 08dc 1A70     		strb	r2, [r3]
 643:lcd.c         **** }
 3052              		.loc 1 643 0
 3053 08de C046     		nop
 3054 08e0 BD46     		mov	sp, r7
 3055 08e2 05B0     		add	sp, sp, #20
 3056              		@ sp needed
 3057 08e4 90BC     		pop	{r4, r7}
 3058 08e6 01BC     		pop	{r0}
 3059 08e8 0047     		bx	r0
 3060              	.L61:
 3061 08ea C046     		.align	2
 3062              	.L60:
 3063 08ec 00000000 		.word	lcd_x
 3064 08f0 01000000 		.word	lcd_y
 3065 08f4 00000000 		.word	charMap
 3066 08f8 03000000 		.word	textColor
 3067 08fc 02000000 		.word	bkgColor
 3068              		.cfi_endproc
 3069              	.LFE14:
 3070              		.size	lcdData, .-lcdData
 3071              		.align	1
 3072              		.global	lcdPutchar
 3073              		.syntax unified
 3074              		.code	16
 3075              		.thumb_func
 3076              		.fpu softvfp
 3077              		.type	lcdPutchar, %function
 3078              	lcdPutchar:
 3079              	.LFB15:
 644:lcd.c         **** 
 645:lcd.c         **** /*
 646:lcd.c         ****  *  @brief			Funckja odpowiedzialna za wywietlenie pojedynczego znaku.
 647:lcd.c         ****  *
 648:lcd.c         ****  *  @Description	Funckja odpowiedzialna za wywietlenie pojedynczego znaku, na obecnej pozycji xy
 649:lcd.c         ****  *
 650:lcd.c         ****  *  @param 			[in]    data
 651:lcd.c         ****  *                      Znak do wyswietlenia.
 652:lcd.c         ****  *
 653:lcd.c         ****  *  @returns  		nic
 654:lcd.c         ****  *
 655:lcd.c         ****  *  @side effects	brak
 656:lcd.c         ****  */
 657:lcd.c         **** void lcdPutchar(tU8 data)
 658:lcd.c         **** {
 3080              		.loc 1 658 0
 3081              		.cfi_startproc
ARM GAS  C:\Users\embedded\AppData\Local\Temp\ccbbimIb.s 			page 67


 3082              		@ Function supports interworking.
 3083              		@ args = 0, pretend = 0, frame = 8
 3084              		@ frame_needed = 1, uses_anonymous_args = 0
 3085 0900 80B5     		push	{r7, lr}
 3086              	.LCFI42:
 3087              		.cfi_def_cfa_offset 8
 3088              		.cfi_offset 7, -8
 3089              		.cfi_offset 14, -4
 3090 0902 82B0     		sub	sp, sp, #8
 3091              	.LCFI43:
 3092              		.cfi_def_cfa_offset 16
 3093 0904 00AF     		add	r7, sp, #0
 3094              	.LCFI44:
 3095              		.cfi_def_cfa_register 7
 3096 0906 0200     		movs	r2, r0
 3097 0908 FB1D     		adds	r3, r7, #7
 3098 090a 1A70     		strb	r2, [r3]
 659:lcd.c         ****     static tBool setcolmark;
 660:lcd.c         **** 
 661:lcd.c         ****     if (data == u'\n')
 3099              		.loc 1 661 0
 3100 090c FB1D     		adds	r3, r7, #7
 3101 090e 1B78     		ldrb	r3, [r3]
 3102 0910 0A2B     		cmp	r3, #10
 3103 0912 02D1     		bne	.L63
 662:lcd.c         ****     {
 663:lcd.c         ****         lcdNewline();
 3104              		.loc 1 663 0
 3105 0914 FFF731FF 		bl	lcdNewline
 664:lcd.c         ****     }
 665:lcd.c         ****     else if (data != u'\r')
 666:lcd.c         ****     {
 667:lcd.c         ****         if (setcolmark == TRUE)
 668:lcd.c         ****         {
 669:lcd.c         ****             textColor = data;
 670:lcd.c         ****             setcolmark = FALSE;
 671:lcd.c         ****         }
 672:lcd.c         ****         else if (data == 0xffu)
 673:lcd.c         ****         {
 674:lcd.c         ****             setcolmark = TRUE;
 675:lcd.c         ****         }
 676:lcd.c         ****         else if (lcd_x <= 124u)
 677:lcd.c         ****         {
 678:lcd.c         ****             lcdData(data);
 679:lcd.c         ****         }
 680:lcd.c         ****         /* nic nie rob */
 681:lcd.c         ****         else
 682:lcd.c         ****         {
 683:lcd.c         ****             ;
 684:lcd.c         ****         }
 685:lcd.c         ****     }
 686:lcd.c         ****     /* nic nie rob */
 687:lcd.c         ****     else
 688:lcd.c         ****     {
 689:lcd.c         ****         ;
 690:lcd.c         ****     }
 691:lcd.c         **** }
ARM GAS  C:\Users\embedded\AppData\Local\Temp\ccbbimIb.s 			page 68


 3106              		.loc 1 691 0
 3107 0918 20E0     		b	.L67
 3108              	.L63:
 665:lcd.c         ****     {
 3109              		.loc 1 665 0
 3110 091a FB1D     		adds	r3, r7, #7
 3111 091c 1B78     		ldrb	r3, [r3]
 3112 091e 0D2B     		cmp	r3, #13
 3113 0920 1CD0     		beq	.L67
 667:lcd.c         ****         {
 3114              		.loc 1 667 0
 3115 0922 114B     		ldr	r3, .L68
 3116 0924 1B78     		ldrb	r3, [r3]
 3117 0926 012B     		cmp	r3, #1
 3118 0928 07D1     		bne	.L65
 669:lcd.c         ****             setcolmark = FALSE;
 3119              		.loc 1 669 0
 3120 092a 104B     		ldr	r3, .L68+4
 3121 092c FA1D     		adds	r2, r7, #7
 3122 092e 1278     		ldrb	r2, [r2]
 3123 0930 1A70     		strb	r2, [r3]
 670:lcd.c         ****         }
 3124              		.loc 1 670 0
 3125 0932 0D4B     		ldr	r3, .L68
 3126 0934 0022     		movs	r2, #0
 3127 0936 1A70     		strb	r2, [r3]
 3128              		.loc 1 691 0
 3129 0938 10E0     		b	.L67
 3130              	.L65:
 672:lcd.c         ****         {
 3131              		.loc 1 672 0
 3132 093a FB1D     		adds	r3, r7, #7
 3133 093c 1B78     		ldrb	r3, [r3]
 3134 093e FF2B     		cmp	r3, #255
 3135 0940 03D1     		bne	.L66
 674:lcd.c         ****         }
 3136              		.loc 1 674 0
 3137 0942 094B     		ldr	r3, .L68
 3138 0944 0122     		movs	r2, #1
 3139 0946 1A70     		strb	r2, [r3]
 3140              		.loc 1 691 0
 3141 0948 08E0     		b	.L67
 3142              	.L66:
 676:lcd.c         ****         {
 3143              		.loc 1 676 0
 3144 094a 094B     		ldr	r3, .L68+8
 3145 094c 1B78     		ldrb	r3, [r3]
 3146 094e 7C2B     		cmp	r3, #124
 3147 0950 04D8     		bhi	.L67
 678:lcd.c         ****         }
 3148              		.loc 1 678 0
 3149 0952 FB1D     		adds	r3, r7, #7
 3150 0954 1B78     		ldrb	r3, [r3]
 3151 0956 1800     		movs	r0, r3
 3152 0958 FFF72CFF 		bl	lcdData
 3153              	.L67:
 3154              		.loc 1 691 0
ARM GAS  C:\Users\embedded\AppData\Local\Temp\ccbbimIb.s 			page 69


 3155 095c C046     		nop
 3156 095e BD46     		mov	sp, r7
 3157 0960 02B0     		add	sp, sp, #8
 3158              		@ sp needed
 3159 0962 80BC     		pop	{r7}
 3160 0964 01BC     		pop	{r0}
 3161 0966 0047     		bx	r0
 3162              	.L69:
 3163              		.align	2
 3164              	.L68:
 3165 0968 04000000 		.word	setcolmark.4348
 3166 096c 03000000 		.word	textColor
 3167 0970 00000000 		.word	lcd_x
 3168              		.cfi_endproc
 3169              	.LFE15:
 3170              		.size	lcdPutchar, .-lcdPutchar
 3171              		.align	1
 3172              		.global	lcdPuts
 3173              		.syntax unified
 3174              		.code	16
 3175              		.thumb_func
 3176              		.fpu softvfp
 3177              		.type	lcdPuts, %function
 3178              	lcdPuts:
 3179              	.LFB16:
 692:lcd.c         **** 
 693:lcd.c         **** /*
 694:lcd.c         ****  *  @brief			Funckja odpowiedzialna za wyswietlenie lancucha znakow.
 695:lcd.c         ****  *
 696:lcd.c         ****  *  @Description	Funckja odpowiedzialna za wyswietlenie lancucha znakow.
 697:lcd.c         ****  *
 698:lcd.c         ****  *  @param 			[in]    s
 699:lcd.c         ****  *                      Lancuch znakow do wywietlenia.
 700:lcd.c         ****  *
 701:lcd.c         ****  *  @returns  		nic
 702:lcd.c         ****  *
 703:lcd.c         ****  *  @side effects	brak
 704:lcd.c         ****  */
 705:lcd.c         **** void lcdPuts(const char* s)
 706:lcd.c         **** {
 3180              		.loc 1 706 0
 3181              		.cfi_startproc
 3182              		@ Function supports interworking.
 3183              		@ args = 0, pretend = 0, frame = 16
 3184              		@ frame_needed = 1, uses_anonymous_args = 0
 3185 0974 80B5     		push	{r7, lr}
 3186              	.LCFI45:
 3187              		.cfi_def_cfa_offset 8
 3188              		.cfi_offset 7, -8
 3189              		.cfi_offset 14, -4
 3190 0976 84B0     		sub	sp, sp, #16
 3191              	.LCFI46:
 3192              		.cfi_def_cfa_offset 24
 3193 0978 00AF     		add	r7, sp, #0
 3194              	.LCFI47:
 3195              		.cfi_def_cfa_register 7
 3196 097a 7860     		str	r0, [r7, #4]
ARM GAS  C:\Users\embedded\AppData\Local\Temp\ccbbimIb.s 			page 70


 707:lcd.c         ****     const char* str = s;
 3197              		.loc 1 707 0
 3198 097c 7B68     		ldr	r3, [r7, #4]
 3199 097e FB60     		str	r3, [r7, #12]
 708:lcd.c         ****     while (*str != '\0')
 3200              		.loc 1 708 0
 3201 0980 06E0     		b	.L71
 3202              	.L72:
 709:lcd.c         ****     {
 710:lcd.c         ****         lcdPutchar(*str++);
 3203              		.loc 1 710 0
 3204 0982 FB68     		ldr	r3, [r7, #12]
 3205 0984 5A1C     		adds	r2, r3, #1
 3206 0986 FA60     		str	r2, [r7, #12]
 3207 0988 1B78     		ldrb	r3, [r3]
 3208 098a 1800     		movs	r0, r3
 3209 098c FFF7FEFF 		bl	lcdPutchar
 3210              	.L71:
 708:lcd.c         ****     while (*str != '\0')
 3211              		.loc 1 708 0
 3212 0990 FB68     		ldr	r3, [r7, #12]
 3213 0992 1B78     		ldrb	r3, [r3]
 3214 0994 002B     		cmp	r3, #0
 3215 0996 F4D1     		bne	.L72
 711:lcd.c         ****     }
 712:lcd.c         **** }
 3216              		.loc 1 712 0
 3217 0998 C046     		nop
 3218 099a BD46     		mov	sp, r7
 3219 099c 04B0     		add	sp, sp, #16
 3220              		@ sp needed
 3221 099e 80BC     		pop	{r7}
 3222 09a0 01BC     		pop	{r0}
 3223 09a2 0047     		bx	r0
 3224              		.cfi_endproc
 3225              	.LFE16:
 3226              		.size	lcdPuts, .-lcdPuts
 3227              		.align	1
 3228              		.global	lcdWrcmd
 3229              		.syntax unified
 3230              		.code	16
 3231              		.thumb_func
 3232              		.fpu softvfp
 3233              		.type	lcdWrcmd, %function
 3234              	lcdWrcmd:
 3235              	.LFB17:
 713:lcd.c         **** 
 714:lcd.c         **** /*
 715:lcd.c         ****  *  @brief			Funckja odpowiedzialna za przeslanie polecenia do wykonania przez LCD z wykorzystanie 
 716:lcd.c         ****  *
 717:lcd.c         ****  *  @Description	Funckja odpowiedzialna za przeslanie polecenia do wykonania przez LCD z wykorzysta
 718:lcd.c         ****  *
 719:lcd.c         ****  *  @param 			[in]    cont
 720:lcd.c         ****  *                      Kod polecenia, ktore ma zostac wykonane przez LCD.
 721:lcd.c         ****  *
 722:lcd.c         ****  *  @returns  		nic
 723:lcd.c         ****  *
ARM GAS  C:\Users\embedded\AppData\Local\Temp\ccbbimIb.s 			page 71


 724:lcd.c         ****  *  @side effects	brak
 725:lcd.c         ****  */
 726:lcd.c         **** void lcdWrcmd(tU8 data)
 727:lcd.c         **** {
 3236              		.loc 1 727 0
 3237              		.cfi_startproc
 3238              		@ Function supports interworking.
 3239              		@ args = 0, pretend = 0, frame = 8
 3240              		@ frame_needed = 1, uses_anonymous_args = 0
 3241 09a4 80B5     		push	{r7, lr}
 3242              	.LCFI48:
 3243              		.cfi_def_cfa_offset 8
 3244              		.cfi_offset 7, -8
 3245              		.cfi_offset 14, -4
 3246 09a6 82B0     		sub	sp, sp, #8
 3247              	.LCFI49:
 3248              		.cfi_def_cfa_offset 16
 3249 09a8 00AF     		add	r7, sp, #0
 3250              	.LCFI50:
 3251              		.cfi_def_cfa_register 7
 3252 09aa 0200     		movs	r2, r0
 3253 09ac FB1D     		adds	r3, r7, #7
 3254 09ae 1A70     		strb	r2, [r3]
 728:lcd.c         ****     sendToLCD(0, data);
 3255              		.loc 1 728 0
 3256 09b0 FB1D     		adds	r3, r7, #7
 3257 09b2 1B78     		ldrb	r3, [r3]
 3258 09b4 1900     		movs	r1, r3
 3259 09b6 0020     		movs	r0, #0
 3260 09b8 FFF7FEFF 		bl	sendToLCD
 729:lcd.c         **** }
 3261              		.loc 1 729 0
 3262 09bc C046     		nop
 3263 09be BD46     		mov	sp, r7
 3264 09c0 02B0     		add	sp, sp, #8
 3265              		@ sp needed
 3266 09c2 80BC     		pop	{r7}
 3267 09c4 01BC     		pop	{r0}
 3268 09c6 0047     		bx	r0
 3269              		.cfi_endproc
 3270              	.LFE17:
 3271              		.size	lcdWrcmd, .-lcdWrcmd
 3272              		.align	1
 3273              		.global	lcdWrdata
 3274              		.syntax unified
 3275              		.code	16
 3276              		.thumb_func
 3277              		.fpu softvfp
 3278              		.type	lcdWrdata, %function
 3279              	lcdWrdata:
 3280              	.LFB18:
 730:lcd.c         **** 
 731:lcd.c         **** /*
 732:lcd.c         ****  *  @brief			Funckja odpowiedzialna za przeslanie danych polecenia z wykorzystanie magistrali SPI.
 733:lcd.c         ****  *
 734:lcd.c         ****  *  @Description	Funckja odpowiedzialna za przeslanie danych polecenia z wykorzystanie magistrali S
 735:lcd.c         ****  *
ARM GAS  C:\Users\embedded\AppData\Local\Temp\ccbbimIb.s 			page 72


 736:lcd.c         ****  *  @param 			[in]    data
 737:lcd.c         ****  *                      Dane potrzebne do wykonania polecenia
 738:lcd.c         ****  *
 739:lcd.c         ****  *  @returns  		nic
 740:lcd.c         ****  *
 741:lcd.c         ****  *  @side effects	brak
 742:lcd.c         ****  */
 743:lcd.c         **** void lcdWrdata(tU8 data)
 744:lcd.c         **** {
 3281              		.loc 1 744 0
 3282              		.cfi_startproc
 3283              		@ Function supports interworking.
 3284              		@ args = 0, pretend = 0, frame = 8
 3285              		@ frame_needed = 1, uses_anonymous_args = 0
 3286 09c8 80B5     		push	{r7, lr}
 3287              	.LCFI51:
 3288              		.cfi_def_cfa_offset 8
 3289              		.cfi_offset 7, -8
 3290              		.cfi_offset 14, -4
 3291 09ca 82B0     		sub	sp, sp, #8
 3292              	.LCFI52:
 3293              		.cfi_def_cfa_offset 16
 3294 09cc 00AF     		add	r7, sp, #0
 3295              	.LCFI53:
 3296              		.cfi_def_cfa_register 7
 3297 09ce 0200     		movs	r2, r0
 3298 09d0 FB1D     		adds	r3, r7, #7
 3299 09d2 1A70     		strb	r2, [r3]
 745:lcd.c         ****     sendToLCD(1, data);
 3300              		.loc 1 745 0
 3301 09d4 FB1D     		adds	r3, r7, #7
 3302 09d6 1B78     		ldrb	r3, [r3]
 3303 09d8 1900     		movs	r1, r3
 3304 09da 0120     		movs	r0, #1
 3305 09dc FFF7FEFF 		bl	sendToLCD
 746:lcd.c         **** }
 3306              		.loc 1 746 0
 3307 09e0 C046     		nop
 3308 09e2 BD46     		mov	sp, r7
 3309 09e4 02B0     		add	sp, sp, #8
 3310              		@ sp needed
 3311 09e6 80BC     		pop	{r7}
 3312 09e8 01BC     		pop	{r0}
 3313 09ea 0047     		bx	r0
 3314              		.cfi_endproc
 3315              	.LFE18:
 3316              		.size	lcdWrdata, .-lcdWrdata
 3317              		.bss
 3318              	setcolmark.4348:
 3319 0004 00       		.space	1
 3320              		.size	setcolmark.4348, 1
 3321              		.text
 3322              	.Letext0:
 3323              		.file 2 "general.h"
 3324              		.file 3 "ascii.h"
 3325              		.section	.debug_info,"",%progbits
 3326              	.Ldebug_info0:
ARM GAS  C:\Users\embedded\AppData\Local\Temp\ccbbimIb.s 			page 73


 3327 0000 AA060000 		.4byte	0x6aa
 3328 0004 0200     		.2byte	0x2
 3329 0006 00000000 		.4byte	.Ldebug_abbrev0
 3330 000a 04       		.byte	0x4
 3331 000b 01       		.uleb128 0x1
 3332 000c BE010000 		.4byte	.LASF56
 3333 0010 0C       		.byte	0xc
 3334 0011 A4010000 		.4byte	.LASF57
 3335 0015 72020000 		.4byte	.LASF58
 3336 0019 00000000 		.4byte	.Ltext0
 3337 001d EC090000 		.4byte	.Letext0
 3338 0021 00000000 		.4byte	.Ldebug_line0
 3339 0025 02       		.uleb128 0x2
 3340 0026 74553800 		.ascii	"tU8\000"
 3341 002a 02       		.byte	0x2
 3342 002b 07       		.byte	0x7
 3343 002c 35000000 		.4byte	0x35
 3344 0030 03       		.uleb128 0x3
 3345 0031 25000000 		.4byte	0x25
 3346 0035 04       		.uleb128 0x4
 3347 0036 01       		.byte	0x1
 3348 0037 08       		.byte	0x8
 3349 0038 0E010000 		.4byte	.LASF1
 3350 003c 05       		.uleb128 0x5
 3351 003d AA010000 		.4byte	.LASF0
 3352 0041 02       		.byte	0x2
 3353 0042 08       		.byte	0x8
 3354 0043 47000000 		.4byte	0x47
 3355 0047 04       		.uleb128 0x4
 3356 0048 02       		.byte	0x2
 3357 0049 07       		.byte	0x7
 3358 004a 85010000 		.4byte	.LASF2
 3359 004e 05       		.uleb128 0x5
 3360 004f 92000000 		.4byte	.LASF3
 3361 0053 02       		.byte	0x2
 3362 0054 09       		.byte	0x9
 3363 0055 59000000 		.4byte	0x59
 3364 0059 04       		.uleb128 0x4
 3365 005a 04       		.byte	0x4
 3366 005b 07       		.byte	0x7
 3367 005c 4E010000 		.4byte	.LASF4
 3368 0060 04       		.uleb128 0x4
 3369 0061 08       		.byte	0x8
 3370 0062 07       		.byte	0x7
 3371 0063 30010000 		.4byte	.LASF5
 3372 0067 04       		.uleb128 0x4
 3373 0068 01       		.byte	0x1
 3374 0069 06       		.byte	0x6
 3375 006a 24010000 		.4byte	.LASF6
 3376 006e 04       		.uleb128 0x4
 3377 006f 02       		.byte	0x2
 3378 0070 05       		.byte	0x5
 3379 0071 49000000 		.4byte	.LASF7
 3380 0075 06       		.uleb128 0x6
 3381 0076 04       		.byte	0x4
 3382 0077 05       		.byte	0x5
 3383 0078 696E7400 		.ascii	"int\000"
ARM GAS  C:\Users\embedded\AppData\Local\Temp\ccbbimIb.s 			page 74


 3384 007c 04       		.uleb128 0x4
 3385 007d 08       		.byte	0x8
 3386 007e 05       		.byte	0x5
 3387 007f D1000000 		.4byte	.LASF8
 3388 0083 07       		.uleb128 0x7
 3389 0084 07       		.byte	0x7
 3390 0085 01       		.byte	0x1
 3391 0086 35000000 		.4byte	0x35
 3392 008a 02       		.byte	0x2
 3393 008b 0F       		.byte	0xf
 3394 008c 9D000000 		.4byte	0x9d
 3395 0090 08       		.uleb128 0x8
 3396 0091 43000000 		.4byte	.LASF9
 3397 0095 00       		.byte	0
 3398 0096 08       		.uleb128 0x8
 3399 0097 68020000 		.4byte	.LASF10
 3400 009b 01       		.byte	0x1
 3401 009c 00       		.byte	0
 3402 009d 05       		.uleb128 0x5
 3403 009e 5B010000 		.4byte	.LASF11
 3404 00a2 02       		.byte	0x2
 3405 00a3 10       		.byte	0x10
 3406 00a4 83000000 		.4byte	0x83
 3407 00a8 09       		.uleb128 0x9
 3408 00a9 30000000 		.4byte	0x30
 3409 00ad B9000000 		.4byte	0xb9
 3410 00b1 0A       		.uleb128 0xa
 3411 00b2 59000000 		.4byte	0x59
 3412 00b6 5B05     		.2byte	0x55b
 3413 00b8 00       		.byte	0
 3414 00b9 03       		.uleb128 0x3
 3415 00ba A8000000 		.4byte	0xa8
 3416 00be 0B       		.uleb128 0xb
 3417 00bf 1C010000 		.4byte	.LASF59
 3418 00c3 03       		.byte	0x3
 3419 00c4 07       		.byte	0x7
 3420 00c5 B9000000 		.4byte	0xb9
 3421 00c9 01       		.byte	0x1
 3422 00ca 05       		.byte	0x5
 3423 00cb 03       		.byte	0x3
 3424 00cc 00000000 		.4byte	charMap
 3425 00d0 0C       		.uleb128 0xc
 3426 00d1 44020000 		.4byte	.LASF12
 3427 00d5 01       		.byte	0x1
 3428 00d6 2E       		.byte	0x2e
 3429 00d7 25000000 		.4byte	0x25
 3430 00db 05       		.byte	0x5
 3431 00dc 03       		.byte	0x3
 3432 00dd 00000000 		.4byte	lcd_x
 3433 00e1 0C       		.uleb128 0xc
 3434 00e2 4A020000 		.4byte	.LASF13
 3435 00e6 01       		.byte	0x1
 3436 00e7 2F       		.byte	0x2f
 3437 00e8 25000000 		.4byte	0x25
 3438 00ec 05       		.byte	0x5
 3439 00ed 03       		.byte	0x3
 3440 00ee 01000000 		.4byte	lcd_y
ARM GAS  C:\Users\embedded\AppData\Local\Temp\ccbbimIb.s 			page 75


 3441 00f2 0C       		.uleb128 0xc
 3442 00f3 23000000 		.4byte	.LASF14
 3443 00f7 01       		.byte	0x1
 3444 00f8 30       		.byte	0x30
 3445 00f9 25000000 		.4byte	0x25
 3446 00fd 05       		.byte	0x5
 3447 00fe 03       		.byte	0x3
 3448 00ff 02000000 		.4byte	bkgColor
 3449 0103 0C       		.uleb128 0xc
 3450 0104 6F000000 		.4byte	.LASF15
 3451 0108 01       		.byte	0x1
 3452 0109 31       		.byte	0x31
 3453 010a 25000000 		.4byte	0x25
 3454 010e 05       		.byte	0x5
 3455 010f 03       		.byte	0x3
 3456 0110 03000000 		.4byte	textColor
 3457 0114 0D       		.uleb128 0xd
 3458 0115 01       		.byte	0x1
 3459 0116 81000000 		.4byte	.LASF16
 3460 011a 01       		.byte	0x1
 3461 011b E702     		.2byte	0x2e7
 3462 011d 01       		.byte	0x1
 3463 011e C8090000 		.4byte	.LFB18
 3464 0122 EC090000 		.4byte	.LFE18
 3465 0126 00000000 		.4byte	.LLST18
 3466 012a 01       		.byte	0x1
 3467 012b 3F010000 		.4byte	0x13f
 3468 012f 0E       		.uleb128 0xe
 3469 0130 AF010000 		.4byte	.LASF18
 3470 0134 01       		.byte	0x1
 3471 0135 E702     		.2byte	0x2e7
 3472 0137 25000000 		.4byte	0x25
 3473 013b 02       		.byte	0x2
 3474 013c 91       		.byte	0x91
 3475 013d 77       		.sleb128 -9
 3476 013e 00       		.byte	0
 3477 013f 0D       		.uleb128 0xd
 3478 0140 01       		.byte	0x1
 3479 0141 53000000 		.4byte	.LASF17
 3480 0145 01       		.byte	0x1
 3481 0146 D602     		.2byte	0x2d6
 3482 0148 01       		.byte	0x1
 3483 0149 A4090000 		.4byte	.LFB17
 3484 014d C8090000 		.4byte	.LFE17
 3485 0151 38000000 		.4byte	.LLST17
 3486 0155 01       		.byte	0x1
 3487 0156 6A010000 		.4byte	0x16a
 3488 015a 0E       		.uleb128 0xe
 3489 015b AF010000 		.4byte	.LASF18
 3490 015f 01       		.byte	0x1
 3491 0160 D602     		.2byte	0x2d6
 3492 0162 25000000 		.4byte	0x25
 3493 0166 02       		.byte	0x2
 3494 0167 91       		.byte	0x91
 3495 0168 77       		.sleb128 -9
 3496 0169 00       		.byte	0
 3497 016a 0D       		.uleb128 0xd
ARM GAS  C:\Users\embedded\AppData\Local\Temp\ccbbimIb.s 			page 76


 3498 016b 01       		.byte	0x1
 3499 016c 67000000 		.4byte	.LASF19
 3500 0170 01       		.byte	0x1
 3501 0171 C102     		.2byte	0x2c1
 3502 0173 01       		.byte	0x1
 3503 0174 74090000 		.4byte	.LFB16
 3504 0178 A4090000 		.4byte	.LFE16
 3505 017c 70000000 		.4byte	.LLST16
 3506 0180 01       		.byte	0x1
 3507 0181 A2010000 		.4byte	0x1a2
 3508 0185 0F       		.uleb128 0xf
 3509 0186 7300     		.ascii	"s\000"
 3510 0188 01       		.byte	0x1
 3511 0189 C102     		.2byte	0x2c1
 3512 018b A2010000 		.4byte	0x1a2
 3513 018f 02       		.byte	0x2
 3514 0190 91       		.byte	0x91
 3515 0191 6C       		.sleb128 -20
 3516 0192 10       		.uleb128 0x10
 3517 0193 73747200 		.ascii	"str\000"
 3518 0197 01       		.byte	0x1
 3519 0198 C302     		.2byte	0x2c3
 3520 019a A2010000 		.4byte	0x1a2
 3521 019e 02       		.byte	0x2
 3522 019f 91       		.byte	0x91
 3523 01a0 74       		.sleb128 -12
 3524 01a1 00       		.byte	0
 3525 01a2 11       		.uleb128 0x11
 3526 01a3 04       		.byte	0x4
 3527 01a4 AF010000 		.4byte	0x1af
 3528 01a8 04       		.uleb128 0x4
 3529 01a9 01       		.byte	0x1
 3530 01aa 08       		.byte	0x8
 3531 01ab 9F010000 		.4byte	.LASF20
 3532 01af 03       		.uleb128 0x3
 3533 01b0 A8010000 		.4byte	0x1a8
 3534 01b4 0D       		.uleb128 0xd
 3535 01b5 01       		.byte	0x1
 3536 01b6 AB000000 		.4byte	.LASF21
 3537 01ba 01       		.byte	0x1
 3538 01bb 9102     		.2byte	0x291
 3539 01bd 01       		.byte	0x1
 3540 01be 00090000 		.4byte	.LFB15
 3541 01c2 74090000 		.4byte	.LFE15
 3542 01c6 A8000000 		.4byte	.LLST15
 3543 01ca 01       		.byte	0x1
 3544 01cb F1010000 		.4byte	0x1f1
 3545 01cf 0E       		.uleb128 0xe
 3546 01d0 AF010000 		.4byte	.LASF18
 3547 01d4 01       		.byte	0x1
 3548 01d5 9102     		.2byte	0x291
 3549 01d7 25000000 		.4byte	0x25
 3550 01db 02       		.byte	0x2
 3551 01dc 91       		.byte	0x91
 3552 01dd 77       		.sleb128 -9
 3553 01de 12       		.uleb128 0x12
 3554 01df 5C000000 		.4byte	.LASF22
ARM GAS  C:\Users\embedded\AppData\Local\Temp\ccbbimIb.s 			page 77


 3555 01e3 01       		.byte	0x1
 3556 01e4 9302     		.2byte	0x293
 3557 01e6 9D000000 		.4byte	0x9d
 3558 01ea 05       		.byte	0x5
 3559 01eb 03       		.byte	0x3
 3560 01ec 04000000 		.4byte	setcolmark.4348
 3561 01f0 00       		.byte	0
 3562 01f1 13       		.uleb128 0x13
 3563 01f2 A3000000 		.4byte	.LASF26
 3564 01f6 01       		.byte	0x1
 3565 01f7 5302     		.2byte	0x253
 3566 01f9 01       		.byte	0x1
 3567 01fa B4070000 		.4byte	.LFB14
 3568 01fe 00090000 		.4byte	.LFE14
 3569 0202 E0000000 		.4byte	.LLST14
 3570 0206 01       		.byte	0x1
 3571 0207 6C020000 		.4byte	0x26c
 3572 020b 0E       		.uleb128 0xe
 3573 020c AF010000 		.4byte	.LASF18
 3574 0210 01       		.byte	0x1
 3575 0211 5302     		.2byte	0x253
 3576 0213 25000000 		.4byte	0x25
 3577 0217 02       		.byte	0x2
 3578 0218 91       		.byte	0x91
 3579 0219 67       		.sleb128 -25
 3580 021a 12       		.uleb128 0x12
 3581 021b 61010000 		.4byte	.LASF23
 3582 021f 01       		.byte	0x1
 3583 0220 5502     		.2byte	0x255
 3584 0222 25000000 		.4byte	0x25
 3585 0226 02       		.byte	0x2
 3586 0227 91       		.byte	0x91
 3587 0228 68       		.sleb128 -24
 3588 0229 14       		.uleb128 0x14
 3589 022a DC070000 		.4byte	.LBB2
 3590 022e CA080000 		.4byte	.LBE2
 3591 0232 12       		.uleb128 0x12
 3592 0233 FA000000 		.4byte	.LASF24
 3593 0237 01       		.byte	0x1
 3594 0238 5B02     		.2byte	0x25b
 3595 023a 4E000000 		.4byte	0x4e
 3596 023e 02       		.byte	0x2
 3597 023f 91       		.byte	0x91
 3598 0240 6C       		.sleb128 -20
 3599 0241 10       		.uleb128 0x10
 3600 0242 6900     		.ascii	"i\000"
 3601 0244 01       		.byte	0x1
 3602 0245 5C02     		.2byte	0x25c
 3603 0247 25000000 		.4byte	0x25
 3604 024b 02       		.byte	0x2
 3605 024c 91       		.byte	0x91
 3606 024d 6B       		.sleb128 -21
 3607 024e 10       		.uleb128 0x10
 3608 024f 6A00     		.ascii	"j\000"
 3609 0251 01       		.byte	0x1
 3610 0252 5D02     		.2byte	0x25d
 3611 0254 25000000 		.4byte	0x25
ARM GAS  C:\Users\embedded\AppData\Local\Temp\ccbbimIb.s 			page 78


 3612 0258 02       		.byte	0x2
 3613 0259 91       		.byte	0x91
 3614 025a 6A       		.sleb128 -22
 3615 025b 12       		.uleb128 0x12
 3616 025c 2C000000 		.4byte	.LASF25
 3617 0260 01       		.byte	0x1
 3618 0261 5E02     		.2byte	0x25e
 3619 0263 25000000 		.4byte	0x25
 3620 0267 02       		.byte	0x2
 3621 0268 91       		.byte	0x91
 3622 0269 69       		.sleb128 -23
 3623 026a 00       		.byte	0
 3624 026b 00       		.byte	0
 3625 026c 15       		.uleb128 0x15
 3626 026d 98020000 		.4byte	.LASF60
 3627 0271 01       		.byte	0x1
 3628 0272 3D02     		.2byte	0x23d
 3629 0274 01       		.byte	0x1
 3630 0275 7A070000 		.4byte	.LFB13
 3631 0279 B4070000 		.4byte	.LFE13
 3632 027d 18010000 		.4byte	.LLST13
 3633 0281 01       		.byte	0x1
 3634 0282 13       		.uleb128 0x13
 3635 0283 38000000 		.4byte	.LASF27
 3636 0287 01       		.byte	0x1
 3637 0288 2702     		.2byte	0x227
 3638 028a 01       		.byte	0x1
 3639 028b FC060000 		.4byte	.LFB12
 3640 028f 7A070000 		.4byte	.LFE12
 3641 0293 44010000 		.4byte	.LLST12
 3642 0297 01       		.byte	0x1
 3643 0298 D5020000 		.4byte	0x2d5
 3644 029c 0F       		.uleb128 0xf
 3645 029d 787000   		.ascii	"xp\000"
 3646 02a0 01       		.byte	0x1
 3647 02a1 2702     		.2byte	0x227
 3648 02a3 25000000 		.4byte	0x25
 3649 02a7 02       		.byte	0x2
 3650 02a8 91       		.byte	0x91
 3651 02a9 6F       		.sleb128 -17
 3652 02aa 0F       		.uleb128 0xf
 3653 02ab 797000   		.ascii	"yp\000"
 3654 02ae 01       		.byte	0x1
 3655 02af 2702     		.2byte	0x227
 3656 02b1 25000000 		.4byte	0x25
 3657 02b5 02       		.byte	0x2
 3658 02b6 91       		.byte	0x91
 3659 02b7 6E       		.sleb128 -18
 3660 02b8 0F       		.uleb128 0xf
 3661 02b9 786500   		.ascii	"xe\000"
 3662 02bc 01       		.byte	0x1
 3663 02bd 2702     		.2byte	0x227
 3664 02bf 25000000 		.4byte	0x25
 3665 02c3 02       		.byte	0x2
 3666 02c4 91       		.byte	0x91
 3667 02c5 6D       		.sleb128 -19
 3668 02c6 0F       		.uleb128 0xf
ARM GAS  C:\Users\embedded\AppData\Local\Temp\ccbbimIb.s 			page 79


 3669 02c7 796500   		.ascii	"ye\000"
 3670 02ca 01       		.byte	0x1
 3671 02cb 2702     		.2byte	0x227
 3672 02cd 25000000 		.4byte	0x25
 3673 02d1 02       		.byte	0x2
 3674 02d2 91       		.byte	0x91
 3675 02d3 6C       		.sleb128 -20
 3676 02d4 00       		.byte	0
 3677 02d5 13       		.uleb128 0x13
 3678 02d6 0E000000 		.4byte	.LASF28
 3679 02da 01       		.byte	0x1
 3680 02db 1302     		.2byte	0x213
 3681 02dd 01       		.byte	0x1
 3682 02de A8060000 		.4byte	.LFB11
 3683 02e2 FC060000 		.4byte	.LFE11
 3684 02e6 7C010000 		.4byte	.LLST11
 3685 02ea 01       		.byte	0x1
 3686 02eb 28030000 		.4byte	0x328
 3687 02ef 0F       		.uleb128 0xf
 3688 02f0 787000   		.ascii	"xp\000"
 3689 02f3 01       		.byte	0x1
 3690 02f4 1302     		.2byte	0x213
 3691 02f6 25000000 		.4byte	0x25
 3692 02fa 02       		.byte	0x2
 3693 02fb 91       		.byte	0x91
 3694 02fc 6F       		.sleb128 -17
 3695 02fd 0F       		.uleb128 0xf
 3696 02fe 797000   		.ascii	"yp\000"
 3697 0301 01       		.byte	0x1
 3698 0302 1302     		.2byte	0x213
 3699 0304 25000000 		.4byte	0x25
 3700 0308 02       		.byte	0x2
 3701 0309 91       		.byte	0x91
 3702 030a 6E       		.sleb128 -18
 3703 030b 0F       		.uleb128 0xf
 3704 030c 786500   		.ascii	"xe\000"
 3705 030f 01       		.byte	0x1
 3706 0310 1302     		.2byte	0x213
 3707 0312 25000000 		.4byte	0x25
 3708 0316 02       		.byte	0x2
 3709 0317 91       		.byte	0x91
 3710 0318 6D       		.sleb128 -19
 3711 0319 0F       		.uleb128 0xf
 3712 031a 796500   		.ascii	"ye\000"
 3713 031d 01       		.byte	0x1
 3714 031e 1302     		.2byte	0x213
 3715 0320 25000000 		.4byte	0x25
 3716 0324 02       		.byte	0x2
 3717 0325 91       		.byte	0x91
 3718 0326 6C       		.sleb128 -20
 3719 0327 00       		.byte	0
 3720 0328 0D       		.uleb128 0xd
 3721 0329 01       		.byte	0x1
 3722 032a 04010000 		.4byte	.LASF29
 3723 032e 01       		.byte	0x1
 3724 032f F701     		.2byte	0x1f7
 3725 0331 01       		.byte	0x1
ARM GAS  C:\Users\embedded\AppData\Local\Temp\ccbbimIb.s 			page 80


 3726 0332 62060000 		.4byte	.LFB10
 3727 0336 A8060000 		.4byte	.LFE10
 3728 033a B4010000 		.4byte	.LLST10
 3729 033e 01       		.byte	0x1
 3730 033f 5E030000 		.4byte	0x35e
 3731 0343 0F       		.uleb128 0xf
 3732 0344 7800     		.ascii	"x\000"
 3733 0346 01       		.byte	0x1
 3734 0347 F701     		.2byte	0x1f7
 3735 0349 25000000 		.4byte	0x25
 3736 034d 02       		.byte	0x2
 3737 034e 91       		.byte	0x91
 3738 034f 77       		.sleb128 -9
 3739 0350 0F       		.uleb128 0xf
 3740 0351 7900     		.ascii	"y\000"
 3741 0353 01       		.byte	0x1
 3742 0354 F701     		.2byte	0x1f7
 3743 0356 25000000 		.4byte	0x25
 3744 035a 02       		.byte	0x2
 3745 035b 91       		.byte	0x91
 3746 035c 76       		.sleb128 -10
 3747 035d 00       		.byte	0
 3748 035e 0D       		.uleb128 0xd
 3749 035f 01       		.byte	0x1
 3750 0360 5C020000 		.4byte	.LASF30
 3751 0364 01       		.byte	0x1
 3752 0365 CC01     		.2byte	0x1cc
 3753 0367 01       		.byte	0x1
 3754 0368 9A050000 		.4byte	.LFB9
 3755 036c 62060000 		.4byte	.LFE9
 3756 0370 EC010000 		.4byte	.LLST9
 3757 0374 01       		.byte	0x1
 3758 0375 DD030000 		.4byte	0x3dd
 3759 0379 0F       		.uleb128 0xf
 3760 037a 7800     		.ascii	"x\000"
 3761 037c 01       		.byte	0x1
 3762 037d CC01     		.2byte	0x1cc
 3763 037f 25000000 		.4byte	0x25
 3764 0383 02       		.byte	0x2
 3765 0384 91       		.byte	0x91
 3766 0385 67       		.sleb128 -25
 3767 0386 0F       		.uleb128 0xf
 3768 0387 7900     		.ascii	"y\000"
 3769 0389 01       		.byte	0x1
 3770 038a CC01     		.2byte	0x1cc
 3771 038c 25000000 		.4byte	0x25
 3772 0390 02       		.byte	0x2
 3773 0391 91       		.byte	0x91
 3774 0392 66       		.sleb128 -26
 3775 0393 0E       		.uleb128 0xe
 3776 0394 B6000000 		.4byte	.LASF31
 3777 0398 01       		.byte	0x1
 3778 0399 CC01     		.2byte	0x1cc
 3779 039b 25000000 		.4byte	0x25
 3780 039f 02       		.byte	0x2
 3781 03a0 91       		.byte	0x91
 3782 03a1 65       		.sleb128 -27
ARM GAS  C:\Users\embedded\AppData\Local\Temp\ccbbimIb.s 			page 81


 3783 03a2 0E       		.uleb128 0xe
 3784 03a3 47010000 		.4byte	.LASF32
 3785 03a7 01       		.byte	0x1
 3786 03a8 CC01     		.2byte	0x1cc
 3787 03aa 25000000 		.4byte	0x25
 3788 03ae 02       		.byte	0x2
 3789 03af 91       		.byte	0x91
 3790 03b0 64       		.sleb128 -28
 3791 03b1 0E       		.uleb128 0xe
 3792 03b2 1D000000 		.4byte	.LASF33
 3793 03b6 01       		.byte	0x1
 3794 03b7 CC01     		.2byte	0x1cc
 3795 03b9 DD030000 		.4byte	0x3dd
 3796 03bd 02       		.byte	0x2
 3797 03be 91       		.byte	0x91
 3798 03bf 00       		.sleb128 0
 3799 03c0 10       		.uleb128 0x10
 3800 03c1 6C656E00 		.ascii	"len\000"
 3801 03c5 01       		.byte	0x1
 3802 03c6 DF01     		.2byte	0x1df
 3803 03c8 4E000000 		.4byte	0x4e
 3804 03cc 02       		.byte	0x2
 3805 03cd 91       		.byte	0x91
 3806 03ce 68       		.sleb128 -24
 3807 03cf 10       		.uleb128 0x10
 3808 03d0 6900     		.ascii	"i\000"
 3809 03d2 01       		.byte	0x1
 3810 03d3 E101     		.2byte	0x1e1
 3811 03d5 4E000000 		.4byte	0x4e
 3812 03d9 02       		.byte	0x2
 3813 03da 91       		.byte	0x91
 3814 03db 6C       		.sleb128 -20
 3815 03dc 00       		.byte	0
 3816 03dd 11       		.uleb128 0x11
 3817 03de 04       		.byte	0x4
 3818 03df 30000000 		.4byte	0x30
 3819 03e3 0D       		.uleb128 0xd
 3820 03e4 01       		.byte	0x1
 3821 03e5 06000000 		.4byte	.LASF34
 3822 03e9 01       		.byte	0x1
 3823 03ea 8201     		.2byte	0x182
 3824 03ec 01       		.byte	0x1
 3825 03ed 6A040000 		.4byte	.LFB8
 3826 03f1 9A050000 		.4byte	.LFE8
 3827 03f5 24020000 		.4byte	.LLST8
 3828 03f9 01       		.byte	0x1
 3829 03fa 9C040000 		.4byte	0x49c
 3830 03fe 0F       		.uleb128 0xf
 3831 03ff 7800     		.ascii	"x\000"
 3832 0401 01       		.byte	0x1
 3833 0402 8201     		.2byte	0x182
 3834 0404 25000000 		.4byte	0x25
 3835 0408 02       		.byte	0x2
 3836 0409 91       		.byte	0x91
 3837 040a 5F       		.sleb128 -33
 3838 040b 0F       		.uleb128 0xf
 3839 040c 7900     		.ascii	"y\000"
ARM GAS  C:\Users\embedded\AppData\Local\Temp\ccbbimIb.s 			page 82


 3840 040e 01       		.byte	0x1
 3841 040f 8201     		.2byte	0x182
 3842 0411 25000000 		.4byte	0x25
 3843 0415 02       		.byte	0x2
 3844 0416 91       		.byte	0x91
 3845 0417 5E       		.sleb128 -34
 3846 0418 0E       		.uleb128 0xe
 3847 0419 57020000 		.4byte	.LASF35
 3848 041d 01       		.byte	0x1
 3849 041e 8201     		.2byte	0x182
 3850 0420 25000000 		.4byte	0x25
 3851 0424 02       		.byte	0x2
 3852 0425 91       		.byte	0x91
 3853 0426 5D       		.sleb128 -35
 3854 0427 0E       		.uleb128 0xe
 3855 0428 6D020000 		.4byte	.LASF36
 3856 042c 01       		.byte	0x1
 3857 042d 8201     		.2byte	0x182
 3858 042f 25000000 		.4byte	0x25
 3859 0433 02       		.byte	0x2
 3860 0434 91       		.byte	0x91
 3861 0435 5C       		.sleb128 -36
 3862 0436 0E       		.uleb128 0xe
 3863 0437 70010000 		.4byte	.LASF37
 3864 043b 01       		.byte	0x1
 3865 043c 8201     		.2byte	0x182
 3866 043e 9D000000 		.4byte	0x9d
 3867 0442 02       		.byte	0x2
 3868 0443 91       		.byte	0x91
 3869 0444 00       		.sleb128 0
 3870 0445 0E       		.uleb128 0xe
 3871 0446 EF000000 		.4byte	.LASF38
 3872 044a 01       		.byte	0x1
 3873 044b 8201     		.2byte	0x182
 3874 044d 25000000 		.4byte	0x25
 3875 0451 02       		.byte	0x2
 3876 0452 91       		.byte	0x91
 3877 0453 04       		.sleb128 4
 3878 0454 0E       		.uleb128 0xe
 3879 0455 1D000000 		.4byte	.LASF33
 3880 0459 01       		.byte	0x1
 3881 045a 8201     		.2byte	0x182
 3882 045c DD030000 		.4byte	0x3dd
 3883 0460 02       		.byte	0x2
 3884 0461 91       		.byte	0x91
 3885 0462 08       		.sleb128 8
 3886 0463 10       		.uleb128 0x10
 3887 0464 6A00     		.ascii	"j\000"
 3888 0466 01       		.byte	0x1
 3889 0467 8401     		.2byte	0x184
 3890 0469 25000000 		.4byte	0x25
 3891 046d 02       		.byte	0x2
 3892 046e 91       		.byte	0x91
 3893 046f 63       		.sleb128 -29
 3894 0470 10       		.uleb128 0x10
 3895 0471 6900     		.ascii	"i\000"
 3896 0473 01       		.byte	0x1
ARM GAS  C:\Users\embedded\AppData\Local\Temp\ccbbimIb.s 			page 83


 3897 0474 8501     		.2byte	0x185
 3898 0476 4E000000 		.4byte	0x4e
 3899 047a 02       		.byte	0x2
 3900 047b 91       		.byte	0x91
 3901 047c 6C       		.sleb128 -20
 3902 047d 10       		.uleb128 0x10
 3903 047e 6C656E00 		.ascii	"len\000"
 3904 0482 01       		.byte	0x1
 3905 0483 8601     		.2byte	0x186
 3906 0485 4E000000 		.4byte	0x4e
 3907 0489 02       		.byte	0x2
 3908 048a 91       		.byte	0x91
 3909 048b 68       		.sleb128 -24
 3910 048c 12       		.uleb128 0x12
 3911 048d 3E020000 		.4byte	.LASF39
 3912 0491 01       		.byte	0x1
 3913 0492 8701     		.2byte	0x187
 3914 0494 DD030000 		.4byte	0x3dd
 3915 0498 02       		.byte	0x2
 3916 0499 91       		.byte	0x91
 3917 049a 64       		.sleb128 -28
 3918 049b 00       		.byte	0
 3919 049c 0D       		.uleb128 0xd
 3920 049d 01       		.byte	0x1
 3921 049e BC000000 		.4byte	.LASF40
 3922 04a2 01       		.byte	0x1
 3923 04a3 5101     		.2byte	0x151
 3924 04a5 01       		.byte	0x1
 3925 04a6 1E030000 		.4byte	.LFB7
 3926 04aa 6A040000 		.4byte	.LFE7
 3927 04ae 5C020000 		.4byte	.LLST7
 3928 04b2 01       		.byte	0x1
 3929 04b3 37050000 		.4byte	0x537
 3930 04b7 0F       		.uleb128 0xf
 3931 04b8 7800     		.ascii	"x\000"
 3932 04ba 01       		.byte	0x1
 3933 04bb 5101     		.2byte	0x151
 3934 04bd 25000000 		.4byte	0x25
 3935 04c1 02       		.byte	0x2
 3936 04c2 91       		.byte	0x91
 3937 04c3 67       		.sleb128 -25
 3938 04c4 0F       		.uleb128 0xf
 3939 04c5 7900     		.ascii	"y\000"
 3940 04c7 01       		.byte	0x1
 3941 04c8 5101     		.2byte	0x151
 3942 04ca 25000000 		.4byte	0x25
 3943 04ce 02       		.byte	0x2
 3944 04cf 91       		.byte	0x91
 3945 04d0 66       		.sleb128 -26
 3946 04d1 0E       		.uleb128 0xe
 3947 04d2 57020000 		.4byte	.LASF35
 3948 04d6 01       		.byte	0x1
 3949 04d7 5101     		.2byte	0x151
 3950 04d9 25000000 		.4byte	0x25
 3951 04dd 02       		.byte	0x2
 3952 04de 91       		.byte	0x91
 3953 04df 65       		.sleb128 -27
ARM GAS  C:\Users\embedded\AppData\Local\Temp\ccbbimIb.s 			page 84


 3954 04e0 0E       		.uleb128 0xe
 3955 04e1 6D020000 		.4byte	.LASF36
 3956 04e5 01       		.byte	0x1
 3957 04e6 5101     		.2byte	0x151
 3958 04e8 25000000 		.4byte	0x25
 3959 04ec 02       		.byte	0x2
 3960 04ed 91       		.byte	0x91
 3961 04ee 64       		.sleb128 -28
 3962 04ef 0E       		.uleb128 0xe
 3963 04f0 7E010000 		.4byte	.LASF41
 3964 04f4 01       		.byte	0x1
 3965 04f5 5101     		.2byte	0x151
 3966 04f7 25000000 		.4byte	0x25
 3967 04fb 02       		.byte	0x2
 3968 04fc 91       		.byte	0x91
 3969 04fd 00       		.sleb128 0
 3970 04fe 0E       		.uleb128 0xe
 3971 04ff 98010000 		.4byte	.LASF42
 3972 0503 01       		.byte	0x1
 3973 0504 5101     		.2byte	0x151
 3974 0506 25000000 		.4byte	0x25
 3975 050a 02       		.byte	0x2
 3976 050b 91       		.byte	0x91
 3977 050c 04       		.sleb128 4
 3978 050d 0E       		.uleb128 0xe
 3979 050e 50020000 		.4byte	.LASF43
 3980 0512 01       		.byte	0x1
 3981 0513 5101     		.2byte	0x151
 3982 0515 25000000 		.4byte	0x25
 3983 0519 02       		.byte	0x2
 3984 051a 91       		.byte	0x91
 3985 051b 08       		.sleb128 8
 3986 051c 10       		.uleb128 0x10
 3987 051d 6900     		.ascii	"i\000"
 3988 051f 01       		.byte	0x1
 3989 0520 5301     		.2byte	0x153
 3990 0522 25000000 		.4byte	0x25
 3991 0526 02       		.byte	0x2
 3992 0527 91       		.byte	0x91
 3993 0528 6F       		.sleb128 -17
 3994 0529 10       		.uleb128 0x10
 3995 052a 6A00     		.ascii	"j\000"
 3996 052c 01       		.byte	0x1
 3997 052d 5401     		.2byte	0x154
 3998 052f 25000000 		.4byte	0x25
 3999 0533 02       		.byte	0x2
 4000 0534 91       		.byte	0x91
 4001 0535 6E       		.sleb128 -18
 4002 0536 00       		.byte	0
 4003 0537 0D       		.uleb128 0xd
 4004 0538 01       		.byte	0x1
 4005 0539 90020000 		.4byte	.LASF44
 4006 053d 01       		.byte	0x1
 4007 053e 2301     		.2byte	0x123
 4008 0540 01       		.byte	0x1
 4009 0541 74020000 		.4byte	.LFB6
 4010 0545 1E030000 		.4byte	.LFE6
ARM GAS  C:\Users\embedded\AppData\Local\Temp\ccbbimIb.s 			page 85


 4011 0549 94020000 		.4byte	.LLST6
 4012 054d 01       		.byte	0x1
 4013 054e B6050000 		.4byte	0x5b6
 4014 0552 0F       		.uleb128 0xf
 4015 0553 7800     		.ascii	"x\000"
 4016 0555 01       		.byte	0x1
 4017 0556 2301     		.2byte	0x123
 4018 0558 25000000 		.4byte	0x25
 4019 055c 02       		.byte	0x2
 4020 055d 91       		.byte	0x91
 4021 055e 67       		.sleb128 -25
 4022 055f 0F       		.uleb128 0xf
 4023 0560 7900     		.ascii	"y\000"
 4024 0562 01       		.byte	0x1
 4025 0563 2301     		.2byte	0x123
 4026 0565 25000000 		.4byte	0x25
 4027 0569 02       		.byte	0x2
 4028 056a 91       		.byte	0x91
 4029 056b 66       		.sleb128 -26
 4030 056c 0E       		.uleb128 0xe
 4031 056d 57020000 		.4byte	.LASF35
 4032 0571 01       		.byte	0x1
 4033 0572 2301     		.2byte	0x123
 4034 0574 25000000 		.4byte	0x25
 4035 0578 02       		.byte	0x2
 4036 0579 91       		.byte	0x91
 4037 057a 65       		.sleb128 -27
 4038 057b 0E       		.uleb128 0xe
 4039 057c 6D020000 		.4byte	.LASF36
 4040 0580 01       		.byte	0x1
 4041 0581 2301     		.2byte	0x123
 4042 0583 25000000 		.4byte	0x25
 4043 0587 02       		.byte	0x2
 4044 0588 91       		.byte	0x91
 4045 0589 64       		.sleb128 -28
 4046 058a 0E       		.uleb128 0xe
 4047 058b 00000000 		.4byte	.LASF45
 4048 058f 01       		.byte	0x1
 4049 0590 2301     		.2byte	0x123
 4050 0592 25000000 		.4byte	0x25
 4051 0596 02       		.byte	0x2
 4052 0597 91       		.byte	0x91
 4053 0598 00       		.sleb128 0
 4054 0599 10       		.uleb128 0x10
 4055 059a 6900     		.ascii	"i\000"
 4056 059c 01       		.byte	0x1
 4057 059d 2501     		.2byte	0x125
 4058 059f 4E000000 		.4byte	0x4e
 4059 05a3 02       		.byte	0x2
 4060 05a4 91       		.byte	0x91
 4061 05a5 6C       		.sleb128 -20
 4062 05a6 10       		.uleb128 0x10
 4063 05a7 6C656E00 		.ascii	"len\000"
 4064 05ab 01       		.byte	0x1
 4065 05ac 2601     		.2byte	0x126
 4066 05ae 4E000000 		.4byte	0x4e
 4067 05b2 02       		.byte	0x2
ARM GAS  C:\Users\embedded\AppData\Local\Temp\ccbbimIb.s 			page 86


 4068 05b3 91       		.byte	0x91
 4069 05b4 68       		.sleb128 -24
 4070 05b5 00       		.byte	0
 4071 05b6 16       		.uleb128 0x16
 4072 05b7 97000000 		.4byte	.LASF46
 4073 05bb 01       		.byte	0x1
 4074 05bc FE       		.byte	0xfe
 4075 05bd 01       		.byte	0x1
 4076 05be 40020000 		.4byte	.LFB5
 4077 05c2 74020000 		.4byte	.LFE5
 4078 05c6 CC020000 		.4byte	.LLST5
 4079 05ca 01       		.byte	0x1
 4080 05cb DE050000 		.4byte	0x5de
 4081 05cf 17       		.uleb128 0x17
 4082 05d0 A3020000 		.4byte	.LASF47
 4083 05d4 01       		.byte	0x1
 4084 05d5 FE       		.byte	0xfe
 4085 05d6 25000000 		.4byte	0x25
 4086 05da 02       		.byte	0x2
 4087 05db 91       		.byte	0x91
 4088 05dc 77       		.sleb128 -9
 4089 05dd 00       		.byte	0
 4090 05de 18       		.uleb128 0x18
 4091 05df 01       		.byte	0x1
 4092 05e0 B4010000 		.4byte	.LASF48
 4093 05e4 01       		.byte	0x1
 4094 05e5 DA       		.byte	0xda
 4095 05e6 01       		.byte	0x1
 4096 05e7 CC010000 		.4byte	.LFB4
 4097 05eb 40020000 		.4byte	.LFE4
 4098 05ef 04030000 		.4byte	.LLST4
 4099 05f3 01       		.byte	0x1
 4100 05f4 23060000 		.4byte	0x623
 4101 05f8 17       		.uleb128 0x17
 4102 05f9 DF000000 		.4byte	.LASF49
 4103 05fd 01       		.byte	0x1
 4104 05fe DA       		.byte	0xda
 4105 05ff 9D000000 		.4byte	0x9d
 4106 0603 02       		.byte	0x2
 4107 0604 91       		.byte	0x91
 4108 0605 6F       		.sleb128 -17
 4109 0606 17       		.uleb128 0x17
 4110 0607 E7000000 		.4byte	.LASF50
 4111 060b 01       		.byte	0x1
 4112 060c DA       		.byte	0xda
 4113 060d 9D000000 		.4byte	0x9d
 4114 0611 02       		.byte	0x2
 4115 0612 91       		.byte	0x91
 4116 0613 6E       		.sleb128 -18
 4117 0614 0C       		.uleb128 0xc
 4118 0615 AF010000 		.4byte	.LASF18
 4119 0619 01       		.byte	0x1
 4120 061a DC       		.byte	0xdc
 4121 061b 3C000000 		.4byte	0x3c
 4122 061f 02       		.byte	0x2
 4123 0620 91       		.byte	0x91
 4124 0621 76       		.sleb128 -10
ARM GAS  C:\Users\embedded\AppData\Local\Temp\ccbbimIb.s 			page 87


 4125 0622 00       		.byte	0
 4126 0623 19       		.uleb128 0x19
 4127 0624 01       		.byte	0x1
 4128 0625 67010000 		.4byte	.LASF51
 4129 0629 01       		.byte	0x1
 4130 062a C5       		.byte	0xc5
 4131 062b 01       		.byte	0x1
 4132 062c 94010000 		.4byte	.LFB3
 4133 0630 CC010000 		.4byte	.LFE3
 4134 0634 3C030000 		.4byte	.LLST3
 4135 0638 01       		.byte	0x1
 4136 0639 5A060000 		.4byte	0x65a
 4137 063d 1A       		.uleb128 0x1a
 4138 063e 626B6700 		.ascii	"bkg\000"
 4139 0642 01       		.byte	0x1
 4140 0643 C5       		.byte	0xc5
 4141 0644 25000000 		.4byte	0x25
 4142 0648 02       		.byte	0x2
 4143 0649 91       		.byte	0x91
 4144 064a 77       		.sleb128 -9
 4145 064b 17       		.uleb128 0x17
 4146 064c 18000000 		.4byte	.LASF52
 4147 0650 01       		.byte	0x1
 4148 0651 C5       		.byte	0xc5
 4149 0652 25000000 		.4byte	0x25
 4150 0656 02       		.byte	0x2
 4151 0657 91       		.byte	0x91
 4152 0658 76       		.sleb128 -10
 4153 0659 00       		.byte	0
 4154 065a 1B       		.uleb128 0x1b
 4155 065b 01       		.byte	0x1
 4156 065c 8B000000 		.4byte	.LASF54
 4157 0660 01       		.byte	0x1
 4158 0661 AD       		.byte	0xad
 4159 0662 01       		.byte	0x1
 4160 0663 70010000 		.4byte	.LFB2
 4161 0667 94010000 		.4byte	.LFE2
 4162 066b 74030000 		.4byte	.LLST2
 4163 066f 01       		.byte	0x1
 4164 0670 18       		.uleb128 0x18
 4165 0671 01       		.byte	0x1
 4166 0672 C7000000 		.4byte	.LASF53
 4167 0676 01       		.byte	0x1
 4168 0677 8B       		.byte	0x8b
 4169 0678 01       		.byte	0x1
 4170 0679 04010000 		.4byte	.LFB1
 4171 067d 70010000 		.4byte	.LFE1
 4172 0681 A0030000 		.4byte	.LLST1
 4173 0685 01       		.byte	0x1
 4174 0686 97060000 		.4byte	0x697
 4175 068a 1C       		.uleb128 0x1c
 4176 068b 6900     		.ascii	"i\000"
 4177 068d 01       		.byte	0x1
 4178 068e 8D       		.byte	0x8d
 4179 068f 4E000000 		.4byte	0x4e
 4180 0693 02       		.byte	0x2
 4181 0694 91       		.byte	0x91
ARM GAS  C:\Users\embedded\AppData\Local\Temp\ccbbimIb.s 			page 88


 4182 0695 74       		.sleb128 -12
 4183 0696 00       		.byte	0
 4184 0697 1B       		.uleb128 0x1b
 4185 0698 01       		.byte	0x1
 4186 0699 79000000 		.4byte	.LASF55
 4187 069d 01       		.byte	0x1
 4188 069e 47       		.byte	0x47
 4189 069f 01       		.byte	0x1
 4190 06a0 00000000 		.4byte	.LFB0
 4191 06a4 04010000 		.4byte	.LFE0
 4192 06a8 D8030000 		.4byte	.LLST0
 4193 06ac 01       		.byte	0x1
 4194 06ad 00       		.byte	0
 4195              		.section	.debug_abbrev,"",%progbits
 4196              	.Ldebug_abbrev0:
 4197 0000 01       		.uleb128 0x1
 4198 0001 11       		.uleb128 0x11
 4199 0002 01       		.byte	0x1
 4200 0003 25       		.uleb128 0x25
 4201 0004 0E       		.uleb128 0xe
 4202 0005 13       		.uleb128 0x13
 4203 0006 0B       		.uleb128 0xb
 4204 0007 03       		.uleb128 0x3
 4205 0008 0E       		.uleb128 0xe
 4206 0009 1B       		.uleb128 0x1b
 4207 000a 0E       		.uleb128 0xe
 4208 000b 11       		.uleb128 0x11
 4209 000c 01       		.uleb128 0x1
 4210 000d 12       		.uleb128 0x12
 4211 000e 01       		.uleb128 0x1
 4212 000f 10       		.uleb128 0x10
 4213 0010 06       		.uleb128 0x6
 4214 0011 00       		.byte	0
 4215 0012 00       		.byte	0
 4216 0013 02       		.uleb128 0x2
 4217 0014 16       		.uleb128 0x16
 4218 0015 00       		.byte	0
 4219 0016 03       		.uleb128 0x3
 4220 0017 08       		.uleb128 0x8
 4221 0018 3A       		.uleb128 0x3a
 4222 0019 0B       		.uleb128 0xb
 4223 001a 3B       		.uleb128 0x3b
 4224 001b 0B       		.uleb128 0xb
 4225 001c 49       		.uleb128 0x49
 4226 001d 13       		.uleb128 0x13
 4227 001e 00       		.byte	0
 4228 001f 00       		.byte	0
 4229 0020 03       		.uleb128 0x3
 4230 0021 26       		.uleb128 0x26
 4231 0022 00       		.byte	0
 4232 0023 49       		.uleb128 0x49
 4233 0024 13       		.uleb128 0x13
 4234 0025 00       		.byte	0
 4235 0026 00       		.byte	0
 4236 0027 04       		.uleb128 0x4
 4237 0028 24       		.uleb128 0x24
 4238 0029 00       		.byte	0
ARM GAS  C:\Users\embedded\AppData\Local\Temp\ccbbimIb.s 			page 89


 4239 002a 0B       		.uleb128 0xb
 4240 002b 0B       		.uleb128 0xb
 4241 002c 3E       		.uleb128 0x3e
 4242 002d 0B       		.uleb128 0xb
 4243 002e 03       		.uleb128 0x3
 4244 002f 0E       		.uleb128 0xe
 4245 0030 00       		.byte	0
 4246 0031 00       		.byte	0
 4247 0032 05       		.uleb128 0x5
 4248 0033 16       		.uleb128 0x16
 4249 0034 00       		.byte	0
 4250 0035 03       		.uleb128 0x3
 4251 0036 0E       		.uleb128 0xe
 4252 0037 3A       		.uleb128 0x3a
 4253 0038 0B       		.uleb128 0xb
 4254 0039 3B       		.uleb128 0x3b
 4255 003a 0B       		.uleb128 0xb
 4256 003b 49       		.uleb128 0x49
 4257 003c 13       		.uleb128 0x13
 4258 003d 00       		.byte	0
 4259 003e 00       		.byte	0
 4260 003f 06       		.uleb128 0x6
 4261 0040 24       		.uleb128 0x24
 4262 0041 00       		.byte	0
 4263 0042 0B       		.uleb128 0xb
 4264 0043 0B       		.uleb128 0xb
 4265 0044 3E       		.uleb128 0x3e
 4266 0045 0B       		.uleb128 0xb
 4267 0046 03       		.uleb128 0x3
 4268 0047 08       		.uleb128 0x8
 4269 0048 00       		.byte	0
 4270 0049 00       		.byte	0
 4271 004a 07       		.uleb128 0x7
 4272 004b 04       		.uleb128 0x4
 4273 004c 01       		.byte	0x1
 4274 004d 3E       		.uleb128 0x3e
 4275 004e 0B       		.uleb128 0xb
 4276 004f 0B       		.uleb128 0xb
 4277 0050 0B       		.uleb128 0xb
 4278 0051 49       		.uleb128 0x49
 4279 0052 13       		.uleb128 0x13
 4280 0053 3A       		.uleb128 0x3a
 4281 0054 0B       		.uleb128 0xb
 4282 0055 3B       		.uleb128 0x3b
 4283 0056 0B       		.uleb128 0xb
 4284 0057 01       		.uleb128 0x1
 4285 0058 13       		.uleb128 0x13
 4286 0059 00       		.byte	0
 4287 005a 00       		.byte	0
 4288 005b 08       		.uleb128 0x8
 4289 005c 28       		.uleb128 0x28
 4290 005d 00       		.byte	0
 4291 005e 03       		.uleb128 0x3
 4292 005f 0E       		.uleb128 0xe
 4293 0060 1C       		.uleb128 0x1c
 4294 0061 0B       		.uleb128 0xb
 4295 0062 00       		.byte	0
ARM GAS  C:\Users\embedded\AppData\Local\Temp\ccbbimIb.s 			page 90


 4296 0063 00       		.byte	0
 4297 0064 09       		.uleb128 0x9
 4298 0065 01       		.uleb128 0x1
 4299 0066 01       		.byte	0x1
 4300 0067 49       		.uleb128 0x49
 4301 0068 13       		.uleb128 0x13
 4302 0069 01       		.uleb128 0x1
 4303 006a 13       		.uleb128 0x13
 4304 006b 00       		.byte	0
 4305 006c 00       		.byte	0
 4306 006d 0A       		.uleb128 0xa
 4307 006e 21       		.uleb128 0x21
 4308 006f 00       		.byte	0
 4309 0070 49       		.uleb128 0x49
 4310 0071 13       		.uleb128 0x13
 4311 0072 2F       		.uleb128 0x2f
 4312 0073 05       		.uleb128 0x5
 4313 0074 00       		.byte	0
 4314 0075 00       		.byte	0
 4315 0076 0B       		.uleb128 0xb
 4316 0077 34       		.uleb128 0x34
 4317 0078 00       		.byte	0
 4318 0079 03       		.uleb128 0x3
 4319 007a 0E       		.uleb128 0xe
 4320 007b 3A       		.uleb128 0x3a
 4321 007c 0B       		.uleb128 0xb
 4322 007d 3B       		.uleb128 0x3b
 4323 007e 0B       		.uleb128 0xb
 4324 007f 49       		.uleb128 0x49
 4325 0080 13       		.uleb128 0x13
 4326 0081 3F       		.uleb128 0x3f
 4327 0082 0C       		.uleb128 0xc
 4328 0083 02       		.uleb128 0x2
 4329 0084 0A       		.uleb128 0xa
 4330 0085 00       		.byte	0
 4331 0086 00       		.byte	0
 4332 0087 0C       		.uleb128 0xc
 4333 0088 34       		.uleb128 0x34
 4334 0089 00       		.byte	0
 4335 008a 03       		.uleb128 0x3
 4336 008b 0E       		.uleb128 0xe
 4337 008c 3A       		.uleb128 0x3a
 4338 008d 0B       		.uleb128 0xb
 4339 008e 3B       		.uleb128 0x3b
 4340 008f 0B       		.uleb128 0xb
 4341 0090 49       		.uleb128 0x49
 4342 0091 13       		.uleb128 0x13
 4343 0092 02       		.uleb128 0x2
 4344 0093 0A       		.uleb128 0xa
 4345 0094 00       		.byte	0
 4346 0095 00       		.byte	0
 4347 0096 0D       		.uleb128 0xd
 4348 0097 2E       		.uleb128 0x2e
 4349 0098 01       		.byte	0x1
 4350 0099 3F       		.uleb128 0x3f
 4351 009a 0C       		.uleb128 0xc
 4352 009b 03       		.uleb128 0x3
ARM GAS  C:\Users\embedded\AppData\Local\Temp\ccbbimIb.s 			page 91


 4353 009c 0E       		.uleb128 0xe
 4354 009d 3A       		.uleb128 0x3a
 4355 009e 0B       		.uleb128 0xb
 4356 009f 3B       		.uleb128 0x3b
 4357 00a0 05       		.uleb128 0x5
 4358 00a1 27       		.uleb128 0x27
 4359 00a2 0C       		.uleb128 0xc
 4360 00a3 11       		.uleb128 0x11
 4361 00a4 01       		.uleb128 0x1
 4362 00a5 12       		.uleb128 0x12
 4363 00a6 01       		.uleb128 0x1
 4364 00a7 40       		.uleb128 0x40
 4365 00a8 06       		.uleb128 0x6
 4366 00a9 9642     		.uleb128 0x2116
 4367 00ab 0C       		.uleb128 0xc
 4368 00ac 01       		.uleb128 0x1
 4369 00ad 13       		.uleb128 0x13
 4370 00ae 00       		.byte	0
 4371 00af 00       		.byte	0
 4372 00b0 0E       		.uleb128 0xe
 4373 00b1 05       		.uleb128 0x5
 4374 00b2 00       		.byte	0
 4375 00b3 03       		.uleb128 0x3
 4376 00b4 0E       		.uleb128 0xe
 4377 00b5 3A       		.uleb128 0x3a
 4378 00b6 0B       		.uleb128 0xb
 4379 00b7 3B       		.uleb128 0x3b
 4380 00b8 05       		.uleb128 0x5
 4381 00b9 49       		.uleb128 0x49
 4382 00ba 13       		.uleb128 0x13
 4383 00bb 02       		.uleb128 0x2
 4384 00bc 0A       		.uleb128 0xa
 4385 00bd 00       		.byte	0
 4386 00be 00       		.byte	0
 4387 00bf 0F       		.uleb128 0xf
 4388 00c0 05       		.uleb128 0x5
 4389 00c1 00       		.byte	0
 4390 00c2 03       		.uleb128 0x3
 4391 00c3 08       		.uleb128 0x8
 4392 00c4 3A       		.uleb128 0x3a
 4393 00c5 0B       		.uleb128 0xb
 4394 00c6 3B       		.uleb128 0x3b
 4395 00c7 05       		.uleb128 0x5
 4396 00c8 49       		.uleb128 0x49
 4397 00c9 13       		.uleb128 0x13
 4398 00ca 02       		.uleb128 0x2
 4399 00cb 0A       		.uleb128 0xa
 4400 00cc 00       		.byte	0
 4401 00cd 00       		.byte	0
 4402 00ce 10       		.uleb128 0x10
 4403 00cf 34       		.uleb128 0x34
 4404 00d0 00       		.byte	0
 4405 00d1 03       		.uleb128 0x3
 4406 00d2 08       		.uleb128 0x8
 4407 00d3 3A       		.uleb128 0x3a
 4408 00d4 0B       		.uleb128 0xb
 4409 00d5 3B       		.uleb128 0x3b
ARM GAS  C:\Users\embedded\AppData\Local\Temp\ccbbimIb.s 			page 92


 4410 00d6 05       		.uleb128 0x5
 4411 00d7 49       		.uleb128 0x49
 4412 00d8 13       		.uleb128 0x13
 4413 00d9 02       		.uleb128 0x2
 4414 00da 0A       		.uleb128 0xa
 4415 00db 00       		.byte	0
 4416 00dc 00       		.byte	0
 4417 00dd 11       		.uleb128 0x11
 4418 00de 0F       		.uleb128 0xf
 4419 00df 00       		.byte	0
 4420 00e0 0B       		.uleb128 0xb
 4421 00e1 0B       		.uleb128 0xb
 4422 00e2 49       		.uleb128 0x49
 4423 00e3 13       		.uleb128 0x13
 4424 00e4 00       		.byte	0
 4425 00e5 00       		.byte	0
 4426 00e6 12       		.uleb128 0x12
 4427 00e7 34       		.uleb128 0x34
 4428 00e8 00       		.byte	0
 4429 00e9 03       		.uleb128 0x3
 4430 00ea 0E       		.uleb128 0xe
 4431 00eb 3A       		.uleb128 0x3a
 4432 00ec 0B       		.uleb128 0xb
 4433 00ed 3B       		.uleb128 0x3b
 4434 00ee 05       		.uleb128 0x5
 4435 00ef 49       		.uleb128 0x49
 4436 00f0 13       		.uleb128 0x13
 4437 00f1 02       		.uleb128 0x2
 4438 00f2 0A       		.uleb128 0xa
 4439 00f3 00       		.byte	0
 4440 00f4 00       		.byte	0
 4441 00f5 13       		.uleb128 0x13
 4442 00f6 2E       		.uleb128 0x2e
 4443 00f7 01       		.byte	0x1
 4444 00f8 03       		.uleb128 0x3
 4445 00f9 0E       		.uleb128 0xe
 4446 00fa 3A       		.uleb128 0x3a
 4447 00fb 0B       		.uleb128 0xb
 4448 00fc 3B       		.uleb128 0x3b
 4449 00fd 05       		.uleb128 0x5
 4450 00fe 27       		.uleb128 0x27
 4451 00ff 0C       		.uleb128 0xc
 4452 0100 11       		.uleb128 0x11
 4453 0101 01       		.uleb128 0x1
 4454 0102 12       		.uleb128 0x12
 4455 0103 01       		.uleb128 0x1
 4456 0104 40       		.uleb128 0x40
 4457 0105 06       		.uleb128 0x6
 4458 0106 9642     		.uleb128 0x2116
 4459 0108 0C       		.uleb128 0xc
 4460 0109 01       		.uleb128 0x1
 4461 010a 13       		.uleb128 0x13
 4462 010b 00       		.byte	0
 4463 010c 00       		.byte	0
 4464 010d 14       		.uleb128 0x14
 4465 010e 0B       		.uleb128 0xb
 4466 010f 01       		.byte	0x1
ARM GAS  C:\Users\embedded\AppData\Local\Temp\ccbbimIb.s 			page 93


 4467 0110 11       		.uleb128 0x11
 4468 0111 01       		.uleb128 0x1
 4469 0112 12       		.uleb128 0x12
 4470 0113 01       		.uleb128 0x1
 4471 0114 00       		.byte	0
 4472 0115 00       		.byte	0
 4473 0116 15       		.uleb128 0x15
 4474 0117 2E       		.uleb128 0x2e
 4475 0118 00       		.byte	0
 4476 0119 03       		.uleb128 0x3
 4477 011a 0E       		.uleb128 0xe
 4478 011b 3A       		.uleb128 0x3a
 4479 011c 0B       		.uleb128 0xb
 4480 011d 3B       		.uleb128 0x3b
 4481 011e 05       		.uleb128 0x5
 4482 011f 27       		.uleb128 0x27
 4483 0120 0C       		.uleb128 0xc
 4484 0121 11       		.uleb128 0x11
 4485 0122 01       		.uleb128 0x1
 4486 0123 12       		.uleb128 0x12
 4487 0124 01       		.uleb128 0x1
 4488 0125 40       		.uleb128 0x40
 4489 0126 06       		.uleb128 0x6
 4490 0127 9742     		.uleb128 0x2117
 4491 0129 0C       		.uleb128 0xc
 4492 012a 00       		.byte	0
 4493 012b 00       		.byte	0
 4494 012c 16       		.uleb128 0x16
 4495 012d 2E       		.uleb128 0x2e
 4496 012e 01       		.byte	0x1
 4497 012f 03       		.uleb128 0x3
 4498 0130 0E       		.uleb128 0xe
 4499 0131 3A       		.uleb128 0x3a
 4500 0132 0B       		.uleb128 0xb
 4501 0133 3B       		.uleb128 0x3b
 4502 0134 0B       		.uleb128 0xb
 4503 0135 27       		.uleb128 0x27
 4504 0136 0C       		.uleb128 0xc
 4505 0137 11       		.uleb128 0x11
 4506 0138 01       		.uleb128 0x1
 4507 0139 12       		.uleb128 0x12
 4508 013a 01       		.uleb128 0x1
 4509 013b 40       		.uleb128 0x40
 4510 013c 06       		.uleb128 0x6
 4511 013d 9642     		.uleb128 0x2116
 4512 013f 0C       		.uleb128 0xc
 4513 0140 01       		.uleb128 0x1
 4514 0141 13       		.uleb128 0x13
 4515 0142 00       		.byte	0
 4516 0143 00       		.byte	0
 4517 0144 17       		.uleb128 0x17
 4518 0145 05       		.uleb128 0x5
 4519 0146 00       		.byte	0
 4520 0147 03       		.uleb128 0x3
 4521 0148 0E       		.uleb128 0xe
 4522 0149 3A       		.uleb128 0x3a
 4523 014a 0B       		.uleb128 0xb
ARM GAS  C:\Users\embedded\AppData\Local\Temp\ccbbimIb.s 			page 94


 4524 014b 3B       		.uleb128 0x3b
 4525 014c 0B       		.uleb128 0xb
 4526 014d 49       		.uleb128 0x49
 4527 014e 13       		.uleb128 0x13
 4528 014f 02       		.uleb128 0x2
 4529 0150 0A       		.uleb128 0xa
 4530 0151 00       		.byte	0
 4531 0152 00       		.byte	0
 4532 0153 18       		.uleb128 0x18
 4533 0154 2E       		.uleb128 0x2e
 4534 0155 01       		.byte	0x1
 4535 0156 3F       		.uleb128 0x3f
 4536 0157 0C       		.uleb128 0xc
 4537 0158 03       		.uleb128 0x3
 4538 0159 0E       		.uleb128 0xe
 4539 015a 3A       		.uleb128 0x3a
 4540 015b 0B       		.uleb128 0xb
 4541 015c 3B       		.uleb128 0x3b
 4542 015d 0B       		.uleb128 0xb
 4543 015e 27       		.uleb128 0x27
 4544 015f 0C       		.uleb128 0xc
 4545 0160 11       		.uleb128 0x11
 4546 0161 01       		.uleb128 0x1
 4547 0162 12       		.uleb128 0x12
 4548 0163 01       		.uleb128 0x1
 4549 0164 40       		.uleb128 0x40
 4550 0165 06       		.uleb128 0x6
 4551 0166 9642     		.uleb128 0x2116
 4552 0168 0C       		.uleb128 0xc
 4553 0169 01       		.uleb128 0x1
 4554 016a 13       		.uleb128 0x13
 4555 016b 00       		.byte	0
 4556 016c 00       		.byte	0
 4557 016d 19       		.uleb128 0x19
 4558 016e 2E       		.uleb128 0x2e
 4559 016f 01       		.byte	0x1
 4560 0170 3F       		.uleb128 0x3f
 4561 0171 0C       		.uleb128 0xc
 4562 0172 03       		.uleb128 0x3
 4563 0173 0E       		.uleb128 0xe
 4564 0174 3A       		.uleb128 0x3a
 4565 0175 0B       		.uleb128 0xb
 4566 0176 3B       		.uleb128 0x3b
 4567 0177 0B       		.uleb128 0xb
 4568 0178 27       		.uleb128 0x27
 4569 0179 0C       		.uleb128 0xc
 4570 017a 11       		.uleb128 0x11
 4571 017b 01       		.uleb128 0x1
 4572 017c 12       		.uleb128 0x12
 4573 017d 01       		.uleb128 0x1
 4574 017e 40       		.uleb128 0x40
 4575 017f 06       		.uleb128 0x6
 4576 0180 9742     		.uleb128 0x2117
 4577 0182 0C       		.uleb128 0xc
 4578 0183 01       		.uleb128 0x1
 4579 0184 13       		.uleb128 0x13
 4580 0185 00       		.byte	0
ARM GAS  C:\Users\embedded\AppData\Local\Temp\ccbbimIb.s 			page 95


 4581 0186 00       		.byte	0
 4582 0187 1A       		.uleb128 0x1a
 4583 0188 05       		.uleb128 0x5
 4584 0189 00       		.byte	0
 4585 018a 03       		.uleb128 0x3
 4586 018b 08       		.uleb128 0x8
 4587 018c 3A       		.uleb128 0x3a
 4588 018d 0B       		.uleb128 0xb
 4589 018e 3B       		.uleb128 0x3b
 4590 018f 0B       		.uleb128 0xb
 4591 0190 49       		.uleb128 0x49
 4592 0191 13       		.uleb128 0x13
 4593 0192 02       		.uleb128 0x2
 4594 0193 0A       		.uleb128 0xa
 4595 0194 00       		.byte	0
 4596 0195 00       		.byte	0
 4597 0196 1B       		.uleb128 0x1b
 4598 0197 2E       		.uleb128 0x2e
 4599 0198 00       		.byte	0
 4600 0199 3F       		.uleb128 0x3f
 4601 019a 0C       		.uleb128 0xc
 4602 019b 03       		.uleb128 0x3
 4603 019c 0E       		.uleb128 0xe
 4604 019d 3A       		.uleb128 0x3a
 4605 019e 0B       		.uleb128 0xb
 4606 019f 3B       		.uleb128 0x3b
 4607 01a0 0B       		.uleb128 0xb
 4608 01a1 27       		.uleb128 0x27
 4609 01a2 0C       		.uleb128 0xc
 4610 01a3 11       		.uleb128 0x11
 4611 01a4 01       		.uleb128 0x1
 4612 01a5 12       		.uleb128 0x12
 4613 01a6 01       		.uleb128 0x1
 4614 01a7 40       		.uleb128 0x40
 4615 01a8 06       		.uleb128 0x6
 4616 01a9 9642     		.uleb128 0x2116
 4617 01ab 0C       		.uleb128 0xc
 4618 01ac 00       		.byte	0
 4619 01ad 00       		.byte	0
 4620 01ae 1C       		.uleb128 0x1c
 4621 01af 34       		.uleb128 0x34
 4622 01b0 00       		.byte	0
 4623 01b1 03       		.uleb128 0x3
 4624 01b2 08       		.uleb128 0x8
 4625 01b3 3A       		.uleb128 0x3a
 4626 01b4 0B       		.uleb128 0xb
 4627 01b5 3B       		.uleb128 0x3b
 4628 01b6 0B       		.uleb128 0xb
 4629 01b7 49       		.uleb128 0x49
 4630 01b8 13       		.uleb128 0x13
 4631 01b9 02       		.uleb128 0x2
 4632 01ba 0A       		.uleb128 0xa
 4633 01bb 00       		.byte	0
 4634 01bc 00       		.byte	0
 4635 01bd 00       		.byte	0
 4636              		.section	.debug_loc,"",%progbits
 4637              	.Ldebug_loc0:
ARM GAS  C:\Users\embedded\AppData\Local\Temp\ccbbimIb.s 			page 96


 4638              	.LLST18:
 4639 0000 C8090000 		.4byte	.LFB18-.Ltext0
 4640 0004 CA090000 		.4byte	.LCFI51-.Ltext0
 4641 0008 0200     		.2byte	0x2
 4642 000a 7D       		.byte	0x7d
 4643 000b 00       		.sleb128 0
 4644 000c CA090000 		.4byte	.LCFI51-.Ltext0
 4645 0010 CC090000 		.4byte	.LCFI52-.Ltext0
 4646 0014 0200     		.2byte	0x2
 4647 0016 7D       		.byte	0x7d
 4648 0017 08       		.sleb128 8
 4649 0018 CC090000 		.4byte	.LCFI52-.Ltext0
 4650 001c CE090000 		.4byte	.LCFI53-.Ltext0
 4651 0020 0200     		.2byte	0x2
 4652 0022 7D       		.byte	0x7d
 4653 0023 10       		.sleb128 16
 4654 0024 CE090000 		.4byte	.LCFI53-.Ltext0
 4655 0028 EC090000 		.4byte	.LFE18-.Ltext0
 4656 002c 0200     		.2byte	0x2
 4657 002e 77       		.byte	0x77
 4658 002f 10       		.sleb128 16
 4659 0030 00000000 		.4byte	0
 4660 0034 00000000 		.4byte	0
 4661              	.LLST17:
 4662 0038 A4090000 		.4byte	.LFB17-.Ltext0
 4663 003c A6090000 		.4byte	.LCFI48-.Ltext0
 4664 0040 0200     		.2byte	0x2
 4665 0042 7D       		.byte	0x7d
 4666 0043 00       		.sleb128 0
 4667 0044 A6090000 		.4byte	.LCFI48-.Ltext0
 4668 0048 A8090000 		.4byte	.LCFI49-.Ltext0
 4669 004c 0200     		.2byte	0x2
 4670 004e 7D       		.byte	0x7d
 4671 004f 08       		.sleb128 8
 4672 0050 A8090000 		.4byte	.LCFI49-.Ltext0
 4673 0054 AA090000 		.4byte	.LCFI50-.Ltext0
 4674 0058 0200     		.2byte	0x2
 4675 005a 7D       		.byte	0x7d
 4676 005b 10       		.sleb128 16
 4677 005c AA090000 		.4byte	.LCFI50-.Ltext0
 4678 0060 C8090000 		.4byte	.LFE17-.Ltext0
 4679 0064 0200     		.2byte	0x2
 4680 0066 77       		.byte	0x77
 4681 0067 10       		.sleb128 16
 4682 0068 00000000 		.4byte	0
 4683 006c 00000000 		.4byte	0
 4684              	.LLST16:
 4685 0070 74090000 		.4byte	.LFB16-.Ltext0
 4686 0074 76090000 		.4byte	.LCFI45-.Ltext0
 4687 0078 0200     		.2byte	0x2
 4688 007a 7D       		.byte	0x7d
 4689 007b 00       		.sleb128 0
 4690 007c 76090000 		.4byte	.LCFI45-.Ltext0
 4691 0080 78090000 		.4byte	.LCFI46-.Ltext0
 4692 0084 0200     		.2byte	0x2
 4693 0086 7D       		.byte	0x7d
 4694 0087 08       		.sleb128 8
ARM GAS  C:\Users\embedded\AppData\Local\Temp\ccbbimIb.s 			page 97


 4695 0088 78090000 		.4byte	.LCFI46-.Ltext0
 4696 008c 7A090000 		.4byte	.LCFI47-.Ltext0
 4697 0090 0200     		.2byte	0x2
 4698 0092 7D       		.byte	0x7d
 4699 0093 18       		.sleb128 24
 4700 0094 7A090000 		.4byte	.LCFI47-.Ltext0
 4701 0098 A4090000 		.4byte	.LFE16-.Ltext0
 4702 009c 0200     		.2byte	0x2
 4703 009e 77       		.byte	0x77
 4704 009f 18       		.sleb128 24
 4705 00a0 00000000 		.4byte	0
 4706 00a4 00000000 		.4byte	0
 4707              	.LLST15:
 4708 00a8 00090000 		.4byte	.LFB15-.Ltext0
 4709 00ac 02090000 		.4byte	.LCFI42-.Ltext0
 4710 00b0 0200     		.2byte	0x2
 4711 00b2 7D       		.byte	0x7d
 4712 00b3 00       		.sleb128 0
 4713 00b4 02090000 		.4byte	.LCFI42-.Ltext0
 4714 00b8 04090000 		.4byte	.LCFI43-.Ltext0
 4715 00bc 0200     		.2byte	0x2
 4716 00be 7D       		.byte	0x7d
 4717 00bf 08       		.sleb128 8
 4718 00c0 04090000 		.4byte	.LCFI43-.Ltext0
 4719 00c4 06090000 		.4byte	.LCFI44-.Ltext0
 4720 00c8 0200     		.2byte	0x2
 4721 00ca 7D       		.byte	0x7d
 4722 00cb 10       		.sleb128 16
 4723 00cc 06090000 		.4byte	.LCFI44-.Ltext0
 4724 00d0 74090000 		.4byte	.LFE15-.Ltext0
 4725 00d4 0200     		.2byte	0x2
 4726 00d6 77       		.byte	0x77
 4727 00d7 10       		.sleb128 16
 4728 00d8 00000000 		.4byte	0
 4729 00dc 00000000 		.4byte	0
 4730              	.LLST14:
 4731 00e0 B4070000 		.4byte	.LFB14-.Ltext0
 4732 00e4 B6070000 		.4byte	.LCFI39-.Ltext0
 4733 00e8 0200     		.2byte	0x2
 4734 00ea 7D       		.byte	0x7d
 4735 00eb 00       		.sleb128 0
 4736 00ec B6070000 		.4byte	.LCFI39-.Ltext0
 4737 00f0 B8070000 		.4byte	.LCFI40-.Ltext0
 4738 00f4 0200     		.2byte	0x2
 4739 00f6 7D       		.byte	0x7d
 4740 00f7 0C       		.sleb128 12
 4741 00f8 B8070000 		.4byte	.LCFI40-.Ltext0
 4742 00fc BA070000 		.4byte	.LCFI41-.Ltext0
 4743 0100 0200     		.2byte	0x2
 4744 0102 7D       		.byte	0x7d
 4745 0103 20       		.sleb128 32
 4746 0104 BA070000 		.4byte	.LCFI41-.Ltext0
 4747 0108 00090000 		.4byte	.LFE14-.Ltext0
 4748 010c 0200     		.2byte	0x2
 4749 010e 77       		.byte	0x77
 4750 010f 20       		.sleb128 32
 4751 0110 00000000 		.4byte	0
ARM GAS  C:\Users\embedded\AppData\Local\Temp\ccbbimIb.s 			page 98


 4752 0114 00000000 		.4byte	0
 4753              	.LLST13:
 4754 0118 7A070000 		.4byte	.LFB13-.Ltext0
 4755 011c 7C070000 		.4byte	.LCFI37-.Ltext0
 4756 0120 0200     		.2byte	0x2
 4757 0122 7D       		.byte	0x7d
 4758 0123 00       		.sleb128 0
 4759 0124 7C070000 		.4byte	.LCFI37-.Ltext0
 4760 0128 7E070000 		.4byte	.LCFI38-.Ltext0
 4761 012c 0200     		.2byte	0x2
 4762 012e 7D       		.byte	0x7d
 4763 012f 08       		.sleb128 8
 4764 0130 7E070000 		.4byte	.LCFI38-.Ltext0
 4765 0134 B4070000 		.4byte	.LFE13-.Ltext0
 4766 0138 0200     		.2byte	0x2
 4767 013a 77       		.byte	0x77
 4768 013b 08       		.sleb128 8
 4769 013c 00000000 		.4byte	0
 4770 0140 00000000 		.4byte	0
 4771              	.LLST12:
 4772 0144 FC060000 		.4byte	.LFB12-.Ltext0
 4773 0148 FE060000 		.4byte	.LCFI34-.Ltext0
 4774 014c 0200     		.2byte	0x2
 4775 014e 7D       		.byte	0x7d
 4776 014f 00       		.sleb128 0
 4777 0150 FE060000 		.4byte	.LCFI34-.Ltext0
 4778 0154 00070000 		.4byte	.LCFI35-.Ltext0
 4779 0158 0200     		.2byte	0x2
 4780 015a 7D       		.byte	0x7d
 4781 015b 10       		.sleb128 16
 4782 015c 00070000 		.4byte	.LCFI35-.Ltext0
 4783 0160 02070000 		.4byte	.LCFI36-.Ltext0
 4784 0164 0200     		.2byte	0x2
 4785 0166 7D       		.byte	0x7d
 4786 0167 18       		.sleb128 24
 4787 0168 02070000 		.4byte	.LCFI36-.Ltext0
 4788 016c 7A070000 		.4byte	.LFE12-.Ltext0
 4789 0170 0200     		.2byte	0x2
 4790 0172 77       		.byte	0x77
 4791 0173 18       		.sleb128 24
 4792 0174 00000000 		.4byte	0
 4793 0178 00000000 		.4byte	0
 4794              	.LLST11:
 4795 017c A8060000 		.4byte	.LFB11-.Ltext0
 4796 0180 AA060000 		.4byte	.LCFI31-.Ltext0
 4797 0184 0200     		.2byte	0x2
 4798 0186 7D       		.byte	0x7d
 4799 0187 00       		.sleb128 0
 4800 0188 AA060000 		.4byte	.LCFI31-.Ltext0
 4801 018c AC060000 		.4byte	.LCFI32-.Ltext0
 4802 0190 0200     		.2byte	0x2
 4803 0192 7D       		.byte	0x7d
 4804 0193 10       		.sleb128 16
 4805 0194 AC060000 		.4byte	.LCFI32-.Ltext0
 4806 0198 AE060000 		.4byte	.LCFI33-.Ltext0
 4807 019c 0200     		.2byte	0x2
 4808 019e 7D       		.byte	0x7d
ARM GAS  C:\Users\embedded\AppData\Local\Temp\ccbbimIb.s 			page 99


 4809 019f 18       		.sleb128 24
 4810 01a0 AE060000 		.4byte	.LCFI33-.Ltext0
 4811 01a4 FC060000 		.4byte	.LFE11-.Ltext0
 4812 01a8 0200     		.2byte	0x2
 4813 01aa 77       		.byte	0x77
 4814 01ab 18       		.sleb128 24
 4815 01ac 00000000 		.4byte	0
 4816 01b0 00000000 		.4byte	0
 4817              	.LLST10:
 4818 01b4 62060000 		.4byte	.LFB10-.Ltext0
 4819 01b8 64060000 		.4byte	.LCFI28-.Ltext0
 4820 01bc 0200     		.2byte	0x2
 4821 01be 7D       		.byte	0x7d
 4822 01bf 00       		.sleb128 0
 4823 01c0 64060000 		.4byte	.LCFI28-.Ltext0
 4824 01c4 66060000 		.4byte	.LCFI29-.Ltext0
 4825 01c8 0200     		.2byte	0x2
 4826 01ca 7D       		.byte	0x7d
 4827 01cb 08       		.sleb128 8
 4828 01cc 66060000 		.4byte	.LCFI29-.Ltext0
 4829 01d0 68060000 		.4byte	.LCFI30-.Ltext0
 4830 01d4 0200     		.2byte	0x2
 4831 01d6 7D       		.byte	0x7d
 4832 01d7 10       		.sleb128 16
 4833 01d8 68060000 		.4byte	.LCFI30-.Ltext0
 4834 01dc A8060000 		.4byte	.LFE10-.Ltext0
 4835 01e0 0200     		.2byte	0x2
 4836 01e2 77       		.byte	0x77
 4837 01e3 10       		.sleb128 16
 4838 01e4 00000000 		.4byte	0
 4839 01e8 00000000 		.4byte	0
 4840              	.LLST9:
 4841 01ec 9A050000 		.4byte	.LFB9-.Ltext0
 4842 01f0 9C050000 		.4byte	.LCFI25-.Ltext0
 4843 01f4 0200     		.2byte	0x2
 4844 01f6 7D       		.byte	0x7d
 4845 01f7 00       		.sleb128 0
 4846 01f8 9C050000 		.4byte	.LCFI25-.Ltext0
 4847 01fc 9E050000 		.4byte	.LCFI26-.Ltext0
 4848 0200 0200     		.2byte	0x2
 4849 0202 7D       		.byte	0x7d
 4850 0203 10       		.sleb128 16
 4851 0204 9E050000 		.4byte	.LCFI26-.Ltext0
 4852 0208 A0050000 		.4byte	.LCFI27-.Ltext0
 4853 020c 0200     		.2byte	0x2
 4854 020e 7D       		.byte	0x7d
 4855 020f 20       		.sleb128 32
 4856 0210 A0050000 		.4byte	.LCFI27-.Ltext0
 4857 0214 62060000 		.4byte	.LFE9-.Ltext0
 4858 0218 0200     		.2byte	0x2
 4859 021a 77       		.byte	0x77
 4860 021b 20       		.sleb128 32
 4861 021c 00000000 		.4byte	0
 4862 0220 00000000 		.4byte	0
 4863              	.LLST8:
 4864 0224 6A040000 		.4byte	.LFB8-.Ltext0
 4865 0228 6C040000 		.4byte	.LCFI22-.Ltext0
ARM GAS  C:\Users\embedded\AppData\Local\Temp\ccbbimIb.s 			page 100


 4866 022c 0200     		.2byte	0x2
 4867 022e 7D       		.byte	0x7d
 4868 022f 00       		.sleb128 0
 4869 0230 6C040000 		.4byte	.LCFI22-.Ltext0
 4870 0234 6E040000 		.4byte	.LCFI23-.Ltext0
 4871 0238 0200     		.2byte	0x2
 4872 023a 7D       		.byte	0x7d
 4873 023b 10       		.sleb128 16
 4874 023c 6E040000 		.4byte	.LCFI23-.Ltext0
 4875 0240 70040000 		.4byte	.LCFI24-.Ltext0
 4876 0244 0200     		.2byte	0x2
 4877 0246 7D       		.byte	0x7d
 4878 0247 28       		.sleb128 40
 4879 0248 70040000 		.4byte	.LCFI24-.Ltext0
 4880 024c 9A050000 		.4byte	.LFE8-.Ltext0
 4881 0250 0200     		.2byte	0x2
 4882 0252 77       		.byte	0x77
 4883 0253 28       		.sleb128 40
 4884 0254 00000000 		.4byte	0
 4885 0258 00000000 		.4byte	0
 4886              	.LLST7:
 4887 025c 1E030000 		.4byte	.LFB7-.Ltext0
 4888 0260 20030000 		.4byte	.LCFI19-.Ltext0
 4889 0264 0200     		.2byte	0x2
 4890 0266 7D       		.byte	0x7d
 4891 0267 00       		.sleb128 0
 4892 0268 20030000 		.4byte	.LCFI19-.Ltext0
 4893 026c 22030000 		.4byte	.LCFI20-.Ltext0
 4894 0270 0200     		.2byte	0x2
 4895 0272 7D       		.byte	0x7d
 4896 0273 10       		.sleb128 16
 4897 0274 22030000 		.4byte	.LCFI20-.Ltext0
 4898 0278 24030000 		.4byte	.LCFI21-.Ltext0
 4899 027c 0200     		.2byte	0x2
 4900 027e 7D       		.byte	0x7d
 4901 027f 20       		.sleb128 32
 4902 0280 24030000 		.4byte	.LCFI21-.Ltext0
 4903 0284 6A040000 		.4byte	.LFE7-.Ltext0
 4904 0288 0200     		.2byte	0x2
 4905 028a 77       		.byte	0x77
 4906 028b 20       		.sleb128 32
 4907 028c 00000000 		.4byte	0
 4908 0290 00000000 		.4byte	0
 4909              	.LLST6:
 4910 0294 74020000 		.4byte	.LFB6-.Ltext0
 4911 0298 76020000 		.4byte	.LCFI16-.Ltext0
 4912 029c 0200     		.2byte	0x2
 4913 029e 7D       		.byte	0x7d
 4914 029f 00       		.sleb128 0
 4915 02a0 76020000 		.4byte	.LCFI16-.Ltext0
 4916 02a4 78020000 		.4byte	.LCFI17-.Ltext0
 4917 02a8 0200     		.2byte	0x2
 4918 02aa 7D       		.byte	0x7d
 4919 02ab 10       		.sleb128 16
 4920 02ac 78020000 		.4byte	.LCFI17-.Ltext0
 4921 02b0 7A020000 		.4byte	.LCFI18-.Ltext0
 4922 02b4 0200     		.2byte	0x2
ARM GAS  C:\Users\embedded\AppData\Local\Temp\ccbbimIb.s 			page 101


 4923 02b6 7D       		.byte	0x7d
 4924 02b7 20       		.sleb128 32
 4925 02b8 7A020000 		.4byte	.LCFI18-.Ltext0
 4926 02bc 1E030000 		.4byte	.LFE6-.Ltext0
 4927 02c0 0200     		.2byte	0x2
 4928 02c2 77       		.byte	0x77
 4929 02c3 20       		.sleb128 32
 4930 02c4 00000000 		.4byte	0
 4931 02c8 00000000 		.4byte	0
 4932              	.LLST5:
 4933 02cc 40020000 		.4byte	.LFB5-.Ltext0
 4934 02d0 42020000 		.4byte	.LCFI13-.Ltext0
 4935 02d4 0200     		.2byte	0x2
 4936 02d6 7D       		.byte	0x7d
 4937 02d7 00       		.sleb128 0
 4938 02d8 42020000 		.4byte	.LCFI13-.Ltext0
 4939 02dc 44020000 		.4byte	.LCFI14-.Ltext0
 4940 02e0 0200     		.2byte	0x2
 4941 02e2 7D       		.byte	0x7d
 4942 02e3 08       		.sleb128 8
 4943 02e4 44020000 		.4byte	.LCFI14-.Ltext0
 4944 02e8 46020000 		.4byte	.LCFI15-.Ltext0
 4945 02ec 0200     		.2byte	0x2
 4946 02ee 7D       		.byte	0x7d
 4947 02ef 10       		.sleb128 16
 4948 02f0 46020000 		.4byte	.LCFI15-.Ltext0
 4949 02f4 74020000 		.4byte	.LFE5-.Ltext0
 4950 02f8 0200     		.2byte	0x2
 4951 02fa 77       		.byte	0x77
 4952 02fb 10       		.sleb128 16
 4953 02fc 00000000 		.4byte	0
 4954 0300 00000000 		.4byte	0
 4955              	.LLST4:
 4956 0304 CC010000 		.4byte	.LFB4-.Ltext0
 4957 0308 CE010000 		.4byte	.LCFI10-.Ltext0
 4958 030c 0200     		.2byte	0x2
 4959 030e 7D       		.byte	0x7d
 4960 030f 00       		.sleb128 0
 4961 0310 CE010000 		.4byte	.LCFI10-.Ltext0
 4962 0314 D0010000 		.4byte	.LCFI11-.Ltext0
 4963 0318 0200     		.2byte	0x2
 4964 031a 7D       		.byte	0x7d
 4965 031b 08       		.sleb128 8
 4966 031c D0010000 		.4byte	.LCFI11-.Ltext0
 4967 0320 D2010000 		.4byte	.LCFI12-.Ltext0
 4968 0324 0200     		.2byte	0x2
 4969 0326 7D       		.byte	0x7d
 4970 0327 18       		.sleb128 24
 4971 0328 D2010000 		.4byte	.LCFI12-.Ltext0
 4972 032c 40020000 		.4byte	.LFE4-.Ltext0
 4973 0330 0200     		.2byte	0x2
 4974 0332 77       		.byte	0x77
 4975 0333 18       		.sleb128 24
 4976 0334 00000000 		.4byte	0
 4977 0338 00000000 		.4byte	0
 4978              	.LLST3:
 4979 033c 94010000 		.4byte	.LFB3-.Ltext0
ARM GAS  C:\Users\embedded\AppData\Local\Temp\ccbbimIb.s 			page 102


 4980 0340 96010000 		.4byte	.LCFI7-.Ltext0
 4981 0344 0200     		.2byte	0x2
 4982 0346 7D       		.byte	0x7d
 4983 0347 00       		.sleb128 0
 4984 0348 96010000 		.4byte	.LCFI7-.Ltext0
 4985 034c 98010000 		.4byte	.LCFI8-.Ltext0
 4986 0350 0200     		.2byte	0x2
 4987 0352 7D       		.byte	0x7d
 4988 0353 08       		.sleb128 8
 4989 0354 98010000 		.4byte	.LCFI8-.Ltext0
 4990 0358 9A010000 		.4byte	.LCFI9-.Ltext0
 4991 035c 0200     		.2byte	0x2
 4992 035e 7D       		.byte	0x7d
 4993 035f 10       		.sleb128 16
 4994 0360 9A010000 		.4byte	.LCFI9-.Ltext0
 4995 0364 CC010000 		.4byte	.LFE3-.Ltext0
 4996 0368 0200     		.2byte	0x2
 4997 036a 77       		.byte	0x77
 4998 036b 10       		.sleb128 16
 4999 036c 00000000 		.4byte	0
 5000 0370 00000000 		.4byte	0
 5001              	.LLST2:
 5002 0374 70010000 		.4byte	.LFB2-.Ltext0
 5003 0378 72010000 		.4byte	.LCFI5-.Ltext0
 5004 037c 0200     		.2byte	0x2
 5005 037e 7D       		.byte	0x7d
 5006 037f 00       		.sleb128 0
 5007 0380 72010000 		.4byte	.LCFI5-.Ltext0
 5008 0384 74010000 		.4byte	.LCFI6-.Ltext0
 5009 0388 0200     		.2byte	0x2
 5010 038a 7D       		.byte	0x7d
 5011 038b 08       		.sleb128 8
 5012 038c 74010000 		.4byte	.LCFI6-.Ltext0
 5013 0390 94010000 		.4byte	.LFE2-.Ltext0
 5014 0394 0200     		.2byte	0x2
 5015 0396 77       		.byte	0x77
 5016 0397 08       		.sleb128 8
 5017 0398 00000000 		.4byte	0
 5018 039c 00000000 		.4byte	0
 5019              	.LLST1:
 5020 03a0 04010000 		.4byte	.LFB1-.Ltext0
 5021 03a4 06010000 		.4byte	.LCFI2-.Ltext0
 5022 03a8 0200     		.2byte	0x2
 5023 03aa 7D       		.byte	0x7d
 5024 03ab 00       		.sleb128 0
 5025 03ac 06010000 		.4byte	.LCFI2-.Ltext0
 5026 03b0 08010000 		.4byte	.LCFI3-.Ltext0
 5027 03b4 0200     		.2byte	0x2
 5028 03b6 7D       		.byte	0x7d
 5029 03b7 08       		.sleb128 8
 5030 03b8 08010000 		.4byte	.LCFI3-.Ltext0
 5031 03bc 0A010000 		.4byte	.LCFI4-.Ltext0
 5032 03c0 0200     		.2byte	0x2
 5033 03c2 7D       		.byte	0x7d
 5034 03c3 10       		.sleb128 16
 5035 03c4 0A010000 		.4byte	.LCFI4-.Ltext0
 5036 03c8 70010000 		.4byte	.LFE1-.Ltext0
ARM GAS  C:\Users\embedded\AppData\Local\Temp\ccbbimIb.s 			page 103


 5037 03cc 0200     		.2byte	0x2
 5038 03ce 77       		.byte	0x77
 5039 03cf 10       		.sleb128 16
 5040 03d0 00000000 		.4byte	0
 5041 03d4 00000000 		.4byte	0
 5042              	.LLST0:
 5043 03d8 00000000 		.4byte	.LFB0-.Ltext0
 5044 03dc 02000000 		.4byte	.LCFI0-.Ltext0
 5045 03e0 0200     		.2byte	0x2
 5046 03e2 7D       		.byte	0x7d
 5047 03e3 00       		.sleb128 0
 5048 03e4 02000000 		.4byte	.LCFI0-.Ltext0
 5049 03e8 04000000 		.4byte	.LCFI1-.Ltext0
 5050 03ec 0200     		.2byte	0x2
 5051 03ee 7D       		.byte	0x7d
 5052 03ef 08       		.sleb128 8
 5053 03f0 04000000 		.4byte	.LCFI1-.Ltext0
 5054 03f4 04010000 		.4byte	.LFE0-.Ltext0
 5055 03f8 0200     		.2byte	0x2
 5056 03fa 77       		.byte	0x77
 5057 03fb 08       		.sleb128 8
 5058 03fc 00000000 		.4byte	0
 5059 0400 00000000 		.4byte	0
 5060              		.section	.debug_aranges,"",%progbits
 5061 0000 1C000000 		.4byte	0x1c
 5062 0004 0200     		.2byte	0x2
 5063 0006 00000000 		.4byte	.Ldebug_info0
 5064 000a 04       		.byte	0x4
 5065 000b 00       		.byte	0
 5066 000c 0000     		.2byte	0
 5067 000e 0000     		.2byte	0
 5068 0010 00000000 		.4byte	.Ltext0
 5069 0014 EC090000 		.4byte	.Letext0-.Ltext0
 5070 0018 00000000 		.4byte	0
 5071 001c 00000000 		.4byte	0
 5072              		.section	.debug_line,"",%progbits
 5073              	.Ldebug_line0:
 5074 0000 16020000 		.section	.debug_str,"MS",%progbits,1
 5074      02003400 
 5074      00000201 
 5074      FB0E0D00 
 5074      01010101 
 5075              	.LASF45:
 5076 0000 636F6C6F 		.ascii	"color\000"
 5076      7200
 5077              	.LASF34:
 5078 0006 6C636449 		.ascii	"lcdIcon\000"
 5078      636F6E00 
 5079              	.LASF28:
 5080 000e 6C636457 		.ascii	"lcdWindow\000"
 5080      696E646F 
 5080      7700
 5081              	.LASF52:
 5082 0018 74657874 		.ascii	"text\000"
 5082      00
 5083              	.LASF33:
 5084 001d 70446174 		.ascii	"pData\000"
ARM GAS  C:\Users\embedded\AppData\Local\Temp\ccbbimIb.s 			page 104


 5084      6100
 5085              	.LASF14:
 5086 0023 626B6743 		.ascii	"bkgColor\000"
 5086      6F6C6F72 
 5086      00
 5087              	.LASF25:
 5088 002c 62797465 		.ascii	"byteToShift\000"
 5088      546F5368 
 5088      69667400 
 5089              	.LASF27:
 5090 0038 6C636457 		.ascii	"lcdWindow1\000"
 5090      696E646F 
 5090      773100
 5091              	.LASF9:
 5092 0043 46414C53 		.ascii	"FALSE\000"
 5092      4500
 5093              	.LASF7:
 5094 0049 73686F72 		.ascii	"short int\000"
 5094      7420696E 
 5094      7400
 5095              	.LASF17:
 5096 0053 6C636457 		.ascii	"lcdWrcmd\000"
 5096      72636D64 
 5096      00
 5097              	.LASF22:
 5098 005c 73657463 		.ascii	"setcolmark\000"
 5098      6F6C6D61 
 5098      726B00
 5099              	.LASF19:
 5100 0067 6C636450 		.ascii	"lcdPuts\000"
 5100      75747300 
 5101              	.LASF15:
 5102 006f 74657874 		.ascii	"textColor\000"
 5102      436F6C6F 
 5102      7200
 5103              	.LASF55:
 5104 0079 6C636449 		.ascii	"lcdInit\000"
 5104      6E697400 
 5105              	.LASF16:
 5106 0081 6C636457 		.ascii	"lcdWrdata\000"
 5106      72646174 
 5106      6100
 5107              	.LASF54:
 5108 008b 6C63644F 		.ascii	"lcdOff\000"
 5108      666600
 5109              	.LASF3:
 5110 0092 74553332 		.ascii	"tU32\000"
 5110      00
 5111              	.LASF46:
 5112 0097 6C636443 		.ascii	"lcdContrast\000"
 5112      6F6E7472 
 5112      61737400 
 5113              	.LASF26:
 5114 00a3 6C636444 		.ascii	"lcdData\000"
 5114      61746100 
 5115              	.LASF21:
 5116 00ab 6C636450 		.ascii	"lcdPutchar\000"
ARM GAS  C:\Users\embedded\AppData\Local\Temp\ccbbimIb.s 			page 105


 5116      75746368 
 5116      617200
 5117              	.LASF31:
 5118 00b6 77696474 		.ascii	"width\000"
 5118      6800
 5119              	.LASF40:
 5120 00bc 6C636452 		.ascii	"lcdRectBrd\000"
 5120      65637442 
 5120      726400
 5121              	.LASF53:
 5122 00c7 6C636443 		.ascii	"lcdClrscr\000"
 5122      6C727363 
 5122      7200
 5123              	.LASF8:
 5124 00d1 6C6F6E67 		.ascii	"long long int\000"
 5124      206C6F6E 
 5124      6720696E 
 5124      7400
 5125              	.LASF49:
 5126 00df 6D697272 		.ascii	"mirrorX\000"
 5126      6F725800 
 5127              	.LASF50:
 5128 00e7 6D697272 		.ascii	"mirrorY\000"
 5128      6F725900 
 5129              	.LASF38:
 5130 00ef 65736361 		.ascii	"escapeChar\000"
 5130      70654368 
 5130      617200
 5131              	.LASF24:
 5132 00fa 6D61704F 		.ascii	"mapOffset\000"
 5132      66667365 
 5132      7400
 5133              	.LASF29:
 5134 0104 6C636447 		.ascii	"lcdGotoxy\000"
 5134      6F746F78 
 5134      7900
 5135              	.LASF1:
 5136 010e 756E7369 		.ascii	"unsigned char\000"
 5136      676E6564 
 5136      20636861 
 5136      7200
 5137              	.LASF59:
 5138 011c 63686172 		.ascii	"charMap\000"
 5138      4D617000 
 5139              	.LASF6:
 5140 0124 7369676E 		.ascii	"signed char\000"
 5140      65642063 
 5140      68617200 
 5141              	.LASF5:
 5142 0130 6C6F6E67 		.ascii	"long long unsigned int\000"
 5142      206C6F6E 
 5142      6720756E 
 5142      7369676E 
 5142      65642069 
 5143              	.LASF32:
 5144 0147 68656967 		.ascii	"height\000"
 5144      687400
ARM GAS  C:\Users\embedded\AppData\Local\Temp\ccbbimIb.s 			page 106


 5145              	.LASF4:
 5146 014e 756E7369 		.ascii	"unsigned int\000"
 5146      676E6564 
 5146      20696E74 
 5146      00
 5147              	.LASF11:
 5148 015b 74426F6F 		.ascii	"tBool\000"
 5148      6C00
 5149              	.LASF23:
 5150 0161 66446174 		.ascii	"fData\000"
 5150      6100
 5151              	.LASF51:
 5152 0167 6C636443 		.ascii	"lcdColor\000"
 5152      6F6C6F72 
 5152      00
 5153              	.LASF37:
 5154 0170 636F6D70 		.ascii	"compressionOn\000"
 5154      72657373 
 5154      696F6E4F 
 5154      6E00
 5155              	.LASF41:
 5156 017e 636F6C6F 		.ascii	"color1\000"
 5156      723100
 5157              	.LASF2:
 5158 0185 73686F72 		.ascii	"short unsigned int\000"
 5158      7420756E 
 5158      7369676E 
 5158      65642069 
 5158      6E7400
 5159              	.LASF42:
 5160 0198 636F6C6F 		.ascii	"color2\000"
 5160      723200
 5161              	.LASF20:
 5162 019f 63686172 		.ascii	"char\000"
 5162      00
 5163              	.LASF57:
 5164 01a4 6C63642E 		.ascii	"lcd.c\000"
 5164      6300
 5165              	.LASF0:
 5166 01aa 74553136 		.ascii	"tU16\000"
 5166      00
 5167              	.LASF18:
 5168 01af 64617461 		.ascii	"data\000"
 5168      00
 5169              	.LASF48:
 5170 01b4 6C63644D 		.ascii	"lcdMirror\000"
 5170      6972726F 
 5170      7200
 5171              	.LASF56:
 5172 01be 474E5520 		.ascii	"GNU C11 7.3.1 20180622 (release) [ARM/embedded-7-br"
 5172      43313120 
 5172      372E332E 
 5172      31203230 
 5172      31383036 
 5173 01f1 616E6368 		.ascii	"anch revision 261907] -mcpu=arm7tdmi -mthumb -mthum"
 5173      20726576 
 5173      6973696F 
ARM GAS  C:\Users\embedded\AppData\Local\Temp\ccbbimIb.s 			page 107


 5173      6E203236 
 5173      31393037 
 5174 0224 622D696E 		.ascii	"b-interwork -gdwarf-2 -O0\000"
 5174      74657277 
 5174      6F726B20 
 5174      2D676477 
 5174      6172662D 
 5175              	.LASF39:
 5176 023e 77446174 		.ascii	"wData\000"
 5176      6100
 5177              	.LASF12:
 5178 0244 6C63645F 		.ascii	"lcd_x\000"
 5178      7800
 5179              	.LASF13:
 5180 024a 6C63645F 		.ascii	"lcd_y\000"
 5180      7900
 5181              	.LASF43:
 5182 0250 636F6C6F 		.ascii	"color3\000"
 5182      723300
 5183              	.LASF35:
 5184 0257 784C656E 		.ascii	"xLen\000"
 5184      00
 5185              	.LASF30:
 5186 025c 6C636444 		.ascii	"lcdDrawIcon\000"
 5186      72617749 
 5186      636F6E00 
 5187              	.LASF10:
 5188 0268 54525545 		.ascii	"TRUE\000"
 5188      00
 5189              	.LASF36:
 5190 026d 794C656E 		.ascii	"yLen\000"
 5190      00
 5191              	.LASF58:
 5192 0272 433A5C45 		.ascii	"C:\\Embedded\\2138MiniDemo\\2138\000"
 5192      6D626564 
 5192      6465645C 
 5192      32313338 
 5192      4D696E69 
 5193              	.LASF44:
 5194 0290 6C636452 		.ascii	"lcdRect\000"
 5194      65637400 
 5195              	.LASF60:
 5196 0298 6C63644E 		.ascii	"lcdNewline\000"
 5196      65776C69 
 5196      6E6500
 5197              	.LASF47:
 5198 02a3 636F6E74 		.ascii	"cont\000"
 5198      00
 5199              		.ident	"GCC: (GNU Tools for Arm Embedded Processors 7-2018-q2-update) 7.3.1 20180622 (release) [AR
ARM GAS  C:\Users\embedded\AppData\Local\Temp\ccbbimIb.s 			page 108


DEFINED SYMBOLS
                            *ABS*:00000000 lcd.c
C:\Users\embedded\AppData\Local\Temp\ccbbimIb.s:20     .rodata:00000000 charMap
C:\Users\embedded\AppData\Local\Temp\ccbbimIb.s:17     .rodata:00000000 $d
C:\Users\embedded\AppData\Local\Temp\ccbbimIb.s:1394   .bss:00000000 lcd_x
C:\Users\embedded\AppData\Local\Temp\ccbbimIb.s:1395   .bss:00000000 $d
C:\Users\embedded\AppData\Local\Temp\ccbbimIb.s:1397   .bss:00000001 lcd_y
C:\Users\embedded\AppData\Local\Temp\ccbbimIb.s:1400   .bss:00000002 bkgColor
C:\Users\embedded\AppData\Local\Temp\ccbbimIb.s:1403   .bss:00000003 textColor
C:\Users\embedded\AppData\Local\Temp\ccbbimIb.s:1414   .text:00000000 lcdInit
C:\Users\embedded\AppData\Local\Temp\ccbbimIb.s:1422   .text:00000000 $t
C:\Users\embedded\AppData\Local\Temp\ccbbimIb.s:3234   .text:000009a4 lcdWrcmd
C:\Users\embedded\AppData\Local\Temp\ccbbimIb.s:3279   .text:000009c8 lcdWrdata
C:\Users\embedded\AppData\Local\Temp\ccbbimIb.s:1849   .text:00000240 lcdContrast
C:\Users\embedded\AppData\Local\Temp\ccbbimIb.s:1572   .text:00000104 lcdClrscr
C:\Users\embedded\AppData\Local\Temp\ccbbimIb.s:1560   .text:000000fc $d
C:\Users\embedded\AppData\Local\Temp\ccbbimIb.s:1565   .text:00000104 $t
C:\Users\embedded\AppData\Local\Temp\ccbbimIb.s:2713   .text:000006fc lcdWindow1
C:\Users\embedded\AppData\Local\Temp\ccbbimIb.s:1644   .text:00000160 $d
C:\Users\embedded\AppData\Local\Temp\ccbbimIb.s:1651   .text:00000170 $t
C:\Users\embedded\AppData\Local\Temp\ccbbimIb.s:1658   .text:00000170 lcdOff
C:\Users\embedded\AppData\Local\Temp\ccbbimIb.s:1701   .text:00000194 lcdColor
C:\Users\embedded\AppData\Local\Temp\ccbbimIb.s:1746   .text:000001c4 $d
C:\Users\embedded\AppData\Local\Temp\ccbbimIb.s:1751   .text:000001cc $t
C:\Users\embedded\AppData\Local\Temp\ccbbimIb.s:1758   .text:000001cc lcdMirror
C:\Users\embedded\AppData\Local\Temp\ccbbimIb.s:1902   .text:00000274 lcdRect
C:\Users\embedded\AppData\Local\Temp\ccbbimIb.s:2022   .text:0000031e lcdRectBrd
C:\Users\embedded\AppData\Local\Temp\ccbbimIb.s:2237   .text:0000046a lcdIcon
C:\Users\embedded\AppData\Local\Temp\ccbbimIb.s:2443   .text:0000059a lcdDrawIcon
C:\Users\embedded\AppData\Local\Temp\ccbbimIb.s:2579   .text:00000662 lcdGotoxy
C:\Users\embedded\AppData\Local\Temp\ccbbimIb.s:2643   .text:000006a8 lcdWindow
C:\Users\embedded\AppData\Local\Temp\ccbbimIb.s:2632   .text:000006a0 $d
C:\Users\embedded\AppData\Local\Temp\ccbbimIb.s:2637   .text:000006a8 $t
C:\Users\embedded\AppData\Local\Temp\ccbbimIb.s:2804   .text:0000077a lcdNewline
C:\Users\embedded\AppData\Local\Temp\ccbbimIb.s:2851   .text:000007ac $d
C:\Users\embedded\AppData\Local\Temp\ccbbimIb.s:2856   .text:000007b4 $t
C:\Users\embedded\AppData\Local\Temp\ccbbimIb.s:2862   .text:000007b4 lcdData
C:\Users\embedded\AppData\Local\Temp\ccbbimIb.s:3063   .text:000008ec $d
C:\Users\embedded\AppData\Local\Temp\ccbbimIb.s:3071   .text:00000900 $t
C:\Users\embedded\AppData\Local\Temp\ccbbimIb.s:3078   .text:00000900 lcdPutchar
C:\Users\embedded\AppData\Local\Temp\ccbbimIb.s:3165   .text:00000968 $d
C:\Users\embedded\AppData\Local\Temp\ccbbimIb.s:3318   .bss:00000004 setcolmark.4348
C:\Users\embedded\AppData\Local\Temp\ccbbimIb.s:3171   .text:00000974 $t
C:\Users\embedded\AppData\Local\Temp\ccbbimIb.s:3178   .text:00000974 lcdPuts

UNDEFINED SYMBOLS
initSpiForLcd
selectLCD
delay_ms
sendToLCD
