ARM GAS  C:\Users\embedded\AppData\Local\Temp\ccmO3zHR.s 			page 1


   1              		.cpu arm7tdmi
   2              		.eabi_attribute 20, 1
   3              		.eabi_attribute 21, 1
   4              		.eabi_attribute 23, 3
   5              		.eabi_attribute 24, 1
   6              		.eabi_attribute 25, 1
   7              		.eabi_attribute 26, 1
   8              		.eabi_attribute 30, 6
   9              		.eabi_attribute 34, 0
  10              		.eabi_attribute 18, 4
  11              		.file	"pwm.c"
  12              		.text
  13              	.Ltext0:
  14              		.cfi_sections	.debug_frame
  15              		.align	1
  16              		.global	blinkGreenLed
  17              		.syntax unified
  18              		.code	16
  19              		.thumb_func
  20              		.fpu softvfp
  21              		.type	blinkGreenLed, %function
  22              	blinkGreenLed:
  23              	.LFB0:
  24              		.file 1 "pwm.c"
   1:pwm.c         **** /*
   2:pwm.c         ****  *	@Description:	Zawiera zbior definicji funkcji zwiazanych obsluga PWM
   3:pwm.c         ****  */
   4:pwm.c         **** #include "general.h"
   5:pwm.c         **** #include <lpc2xxx.h>
   6:pwm.c         **** #include <config.h>
   7:pwm.c         **** #include "pwm.h"
   8:pwm.c         **** #include "functionals.h"
   9:pwm.c         **** 
  10:pwm.c         **** 
  11:pwm.c         **** /*
  12:pwm.c         ****  *  @brief			Funkcja wykonujaca mrugniecie dioda Green LED przekazana ilosc razy.
  13:pwm.c         ****  *
  14:pwm.c         ****  *  @Description	Funkcja wykonuje mrugniecie dioda w liczbie zgodna z ta przekazana przez
  15:pwm.c         ****  * 					parametr. Mrugniecia trwaja 250ms i sa w odstepach 250ms. Nalezy zauwazyc,
  16:pwm.c         ****  * 					iz ta dioda wykorzystuje ten sam pin (P0.21) (bity 11. i 10. ustawione na 01,
  17:pwm.c         ****  * 					aby wlaczyc funkcje sterowania dioda) co odczyt przyspieszenia wzdluz
  18:pwm.c         ****  * 					osi X z akcelerometru. Tym samym nie wolno, uzywac tych polecen w tym samym
  19:pwm.c         ****  * 					czasie. Sterowanie dioda Green LED odbywa sie za pomoca PWM. Funkcja na
  20:pwm.c         ****  * 					zakonczenie pracy przywraca zawartosc rejestru PINSEL1 na te z przed wywolania.
  21:pwm.c         ****  *
  22:pwm.c         ****  *  @param 			[in]	numberOfBlinks
  23:pwm.c         ****  *						liczba mrugniec jakie ma wykonac dioda Green LED
  24:pwm.c         ****  *
  25:pwm.c         ****  *  @returns  		nic
  26:pwm.c         ****  *
  27:pwm.c         ****  *  @side effects	Modyfikacja rejestru PINSEL1 (bity 11., 10.)
  28:pwm.c         ****  */
  29:pwm.c         **** void
  30:pwm.c         **** blinkGreenLed(tU8 numberOfBlinks) 
  31:pwm.c         **** {
  25              		.loc 1 31 0
  26              		.cfi_startproc
ARM GAS  C:\Users\embedded\AppData\Local\Temp\ccmO3zHR.s 			page 2


  27              		@ Function supports interworking.
  28              		@ args = 0, pretend = 0, frame = 16
  29              		@ frame_needed = 1, uses_anonymous_args = 0
  30 0000 B0B5     		push	{r4, r5, r7, lr}
  31              	.LCFI0:
  32              		.cfi_def_cfa_offset 16
  33              		.cfi_offset 4, -16
  34              		.cfi_offset 5, -12
  35              		.cfi_offset 7, -8
  36              		.cfi_offset 14, -4
  37 0002 84B0     		sub	sp, sp, #16
  38              	.LCFI1:
  39              		.cfi_def_cfa_offset 32
  40 0004 00AF     		add	r7, sp, #0
  41              	.LCFI2:
  42              		.cfi_def_cfa_register 7
  43 0006 0200     		movs	r2, r0
  44 0008 FB1D     		adds	r3, r7, #7
  45 000a 1A70     		strb	r2, [r3]
  32:pwm.c         **** 	/* Jedynka 32-bitowa */
  33:pwm.c         **** 	const tU32 one32 = 1u;
  46              		.loc 1 33 0
  47 000c 0123     		movs	r3, #1
  48 000e FB60     		str	r3, [r7, #12]
  34:pwm.c         **** 
  35:pwm.c         **** 	if (numberOfBlinks != 0u) /* Sprawdzenie, czy numberOfBlinks jest zero. Jezeli tak to zakoncz dzia
  49              		.loc 1 35 0
  50 0010 FB1D     		adds	r3, r7, #7
  51 0012 1B78     		ldrb	r3, [r3]
  52 0014 002B     		cmp	r3, #0
  53 0016 00D1     		bne	.LCB25
  54 0018 B0E0     		b	.L3	@long jump
  55              	.LCB25:
  56              	.LBB2:
  36:pwm.c         **** 	{
  37:pwm.c         **** 		/* Czas trwania mrugniecia (swiecenia sie diody) w milisekundach */
  38:pwm.c         **** 		tU16 blinkDurationTime = 250;
  57              		.loc 1 38 0
  58 001a 0A20     		movs	r0, #10
  59 001c 3B18     		adds	r3, r7, r0
  60 001e FA22     		movs	r2, #250
  61 0020 1A80     		strh	r2, [r3]
  39:pwm.c         **** 
  40:pwm.c         **** 		/* Czas trwania przerwy miedzy kolejnym zapaleniem sie diody w milisekundach */
  41:pwm.c         **** 		tU16 timeToNextBlink = 250;
  62              		.loc 1 41 0
  63 0022 0824     		movs	r4, #8
  64 0024 3B19     		adds	r3, r7, r4
  65 0026 FA22     		movs	r2, #250
  66 0028 1A80     		strh	r2, [r3]
  42:pwm.c         **** 
  43:pwm.c         **** 		/*	Inicjalizacja wyjscia PWM5 (P0.21) */
  44:pwm.c         **** 		/*	Ustawienie funkcji pinu P0.21 na wyjscie PWM5.
  45:pwm.c         **** 		*	Umozliwia sterowanie dioda Green LED.
  46:pwm.c         **** 		*/
  47:pwm.c         **** 		PINSEL1 &= ~((one32 << 10) | (one32 << 11));
  67              		.loc 1 47 0
ARM GAS  C:\Users\embedded\AppData\Local\Temp\ccmO3zHR.s 			page 3


  68 002a 574B     		ldr	r3, .L4
  69 002c 1A68     		ldr	r2, [r3]
  70 002e FB68     		ldr	r3, [r7, #12]
  71 0030 9902     		lsls	r1, r3, #10
  72 0032 FB68     		ldr	r3, [r7, #12]
  73 0034 DB02     		lsls	r3, r3, #11
  74 0036 0B43     		orrs	r3, r1
  75 0038 D943     		mvns	r1, r3
  76 003a 534B     		ldr	r3, .L4
  77 003c 0A40     		ands	r2, r1
  78 003e 1A60     		str	r2, [r3]
  48:pwm.c         **** 		PINSEL1 |= (one32 << 10);
  79              		.loc 1 48 0
  80 0040 514B     		ldr	r3, .L4
  81 0042 1968     		ldr	r1, [r3]
  82 0044 FB68     		ldr	r3, [r7, #12]
  83 0046 9A02     		lsls	r2, r3, #10
  84 0048 4F4B     		ldr	r3, .L4
  85 004a 0A43     		orrs	r2, r1
  86 004c 1A60     		str	r2, [r3]
  49:pwm.c         **** 
  50:pwm.c         **** 		/* Zatrzymanie i zresetowanie Timer Counter'a dla PWM */
  51:pwm.c         **** 		PWMTCR = 0x02;
  87              		.loc 1 51 0
  88 004e 4F4B     		ldr	r3, .L4+4
  89 0050 0222     		movs	r2, #2
  90 0052 1A60     		str	r2, [r3]
  52:pwm.c         **** 
  53:pwm.c         **** 		/* Ustawienie wartosci rejestru Prescaler Counter, aby co kazde PCLK zawartosc rejestru PWMTC byl
  54:pwm.c         **** 		PWMPC = 0;
  91              		.loc 1 54 0
  92 0054 4E4B     		ldr	r3, .L4+8
  93 0056 0022     		movs	r2, #0
  94 0058 1A60     		str	r2, [r3]
  55:pwm.c         **** 		/* Ustawienie aby kanal 5 PWM dzialal w trybie double edge */
  56:pwm.c         **** 		PWMPCR |= (one32 << 5);
  95              		.loc 1 56 0
  96 005a 4E4B     		ldr	r3, .L4+12
  97 005c 1968     		ldr	r1, [r3]
  98 005e FB68     		ldr	r3, [r7, #12]
  99 0060 5A01     		lsls	r2, r3, #5
 100 0062 4C4B     		ldr	r3, .L4+12
 101 0064 0A43     		orrs	r2, r1
 102 0066 1A60     		str	r2, [r3]
  57:pwm.c         **** 		PWMPCR |= (one32 << 13);
 103              		.loc 1 57 0
 104 0068 4A4B     		ldr	r3, .L4+12
 105 006a 1968     		ldr	r1, [r3]
 106 006c FB68     		ldr	r3, [r7, #12]
 107 006e 5A03     		lsls	r2, r3, #13
 108 0070 484B     		ldr	r3, .L4+12
 109 0072 0A43     		orrs	r2, r1
 110 0074 1A60     		str	r2, [r3]
  58:pwm.c         **** 
  59:pwm.c         **** 		/* Ustawienie funkcji Match Register 0, aby na dopasowanie zresetowany zostal PWMTC (bit 1. ustaw
  60:pwm.c         **** 		PWMMCR &= ~(0x7); 	/* Wyzerowanie bitow w rejestrze PWMMRC zwiazanych z MR0 */
 111              		.loc 1 60 0
ARM GAS  C:\Users\embedded\AppData\Local\Temp\ccmO3zHR.s 			page 4


 112 0076 484B     		ldr	r3, .L4+16
 113 0078 1A68     		ldr	r2, [r3]
 114 007a 474B     		ldr	r3, .L4+16
 115 007c 0721     		movs	r1, #7
 116 007e 8A43     		bics	r2, r1
 117 0080 1A60     		str	r2, [r3]
  61:pwm.c         **** 		PWMMCR |= 0x2; 		/* Wybranie opcji resetowania PWMTC na dopasowanie */
 118              		.loc 1 61 0
 119 0082 454B     		ldr	r3, .L4+16
 120 0084 1A68     		ldr	r2, [r3]
 121 0086 444B     		ldr	r3, .L4+16
 122 0088 0221     		movs	r1, #2
 123 008a 0A43     		orrs	r2, r1
 124 008c 1A60     		str	r2, [r3]
  62:pwm.c         **** 		/* Ustawienie wartosci dla Match Register 0 na wartosc reprezentujaca sume blinkDurationTime i ti
  63:pwm.c         **** 		PWMMR0 = (blinkDurationTime + timeToNextBlink) * (CORE_FREQ / PBSD / 1000);
 125              		.loc 1 63 0
 126 008e 3B18     		adds	r3, r7, r0
 127 0090 1A88     		ldrh	r2, [r3]
 128 0092 3B19     		adds	r3, r7, r4
 129 0094 1B88     		ldrh	r3, [r3]
 130 0096 D318     		adds	r3, r2, r3
 131 0098 1900     		movs	r1, r3
 132 009a 404B     		ldr	r3, .L4+20
 133 009c 404A     		ldr	r2, .L4+24
 134 009e 1500     		movs	r5, r2
 135 00a0 4D43     		muls	r5, r1
 136 00a2 1D60     		str	r5, [r3]
  64:pwm.c         **** 
  65:pwm.c         **** 		/* Ustawienie funkcji Match Register 5 na zadna (zadne operacja zwiazana z rejestrami licznikow m
  66:pwm.c         **** 		PWMMCR &= ~((one32 << 17) | (one32 << 16) | (one32 << 15));
 137              		.loc 1 66 0
 138 00a4 3C4B     		ldr	r3, .L4+16
 139 00a6 1A68     		ldr	r2, [r3]
 140 00a8 FB68     		ldr	r3, [r7, #12]
 141 00aa 5904     		lsls	r1, r3, #17
 142 00ac FB68     		ldr	r3, [r7, #12]
 143 00ae 1B04     		lsls	r3, r3, #16
 144 00b0 1943     		orrs	r1, r3
 145 00b2 FB68     		ldr	r3, [r7, #12]
 146 00b4 DB03     		lsls	r3, r3, #15
 147 00b6 0B43     		orrs	r3, r1
 148 00b8 D943     		mvns	r1, r3
 149 00ba 374B     		ldr	r3, .L4+16
 150 00bc 0A40     		ands	r2, r1
 151 00be 1A60     		str	r2, [r3]
  67:pwm.c         **** 		/* Ustawienie wartosci dla Match Register 5 na wartosc 1, odrazu ma sie wykonac dopasowanie, a di
  68:pwm.c         **** 		PWMMR5 = (one32) * (CORE_FREQ / PBSD / 1000);
 152              		.loc 1 68 0
 153 00c0 384B     		ldr	r3, .L4+28
 154 00c2 FA68     		ldr	r2, [r7, #12]
 155 00c4 3649     		ldr	r1, .L4+24
 156 00c6 1500     		movs	r5, r2
 157 00c8 4D43     		muls	r5, r1
 158 00ca 1D60     		str	r5, [r3]
  69:pwm.c         **** 		//PWMMR5 = (blinkDurationTime) * (CORE_FREQ / PBSD / 1000);
  70:pwm.c         **** 
ARM GAS  C:\Users\embedded\AppData\Local\Temp\ccmO3zHR.s 			page 5


  71:pwm.c         **** 		/* Ustawienie funkcji Match Register 4 na zadna (zadne operacja zwiazana z rejestrami licznikow m
  72:pwm.c         **** 		PWMMCR &= ~((one32 << 14) | (one32 << 13) | (one32 << 12));
 159              		.loc 1 72 0
 160 00cc 324B     		ldr	r3, .L4+16
 161 00ce 1A68     		ldr	r2, [r3]
 162 00d0 FB68     		ldr	r3, [r7, #12]
 163 00d2 9903     		lsls	r1, r3, #14
 164 00d4 FB68     		ldr	r3, [r7, #12]
 165 00d6 5B03     		lsls	r3, r3, #13
 166 00d8 1943     		orrs	r1, r3
 167 00da FB68     		ldr	r3, [r7, #12]
 168 00dc 1B03     		lsls	r3, r3, #12
 169 00de 0B43     		orrs	r3, r1
 170 00e0 D943     		mvns	r1, r3
 171 00e2 2D4B     		ldr	r3, .L4+16
 172 00e4 0A40     		ands	r2, r1
 173 00e6 1A60     		str	r2, [r3]
  73:pwm.c         **** 		/* Ustawienie wartosci dla Match Register 4 na wartosc blinkDurationTime, dioda ma zgasnac po upl
  74:pwm.c         **** 		PWMMR4 = (blinkDurationTime) * (CORE_FREQ / PBSD / 1000);
 174              		.loc 1 74 0
 175 00e8 3B18     		adds	r3, r7, r0
 176 00ea 1D88     		ldrh	r5, [r3]
 177 00ec 2E4B     		ldr	r3, .L4+32
 178 00ee 2C49     		ldr	r1, .L4+24
 179 00f0 2A00     		movs	r2, r5
 180 00f2 4A43     		muls	r2, r1
 181 00f4 1A60     		str	r2, [r3]
  75:pwm.c         **** 
  76:pwm.c         **** 		/* Rozpoczecie dzialania PWM */
  77:pwm.c         **** 		PWMTCR = 1;
 182              		.loc 1 77 0
 183 00f6 254B     		ldr	r3, .L4+4
 184 00f8 0122     		movs	r2, #1
 185 00fa 1A60     		str	r2, [r3]
  78:pwm.c         **** 
  79:pwm.c         **** 		/* Wstrzymanie dzialania do momentu wykonania odpowiedniej liczby mrugniec */
  80:pwm.c         **** 		delay_ms((((tU16)numberOfBlinks) * blinkDurationTime) + ((((tU16)numberOfBlinks) - 1u) * timeToNe
 186              		.loc 1 80 0
 187 00fc FB1D     		adds	r3, r7, #7
 188 00fe 1B78     		ldrb	r3, [r3]
 189 0100 1B04     		lsls	r3, r3, #16
 190 0102 190C     		lsrs	r1, r3, #16
 191 0104 3A18     		adds	r2, r7, r0
 192 0106 1288     		ldrh	r2, [r2]
 193 0108 0B00     		movs	r3, r1
 194 010a 5343     		muls	r3, r2
 195 010c 1B04     		lsls	r3, r3, #16
 196 010e 1A0C     		lsrs	r2, r3, #16
 197 0110 FB1D     		adds	r3, r7, #7
 198 0112 1B78     		ldrb	r3, [r3]
 199 0114 013B     		subs	r3, r3, #1
 200 0116 1B04     		lsls	r3, r3, #16
 201 0118 1D0C     		lsrs	r5, r3, #16
 202 011a 3919     		adds	r1, r7, r4
 203 011c 0988     		ldrh	r1, [r1]
 204 011e 2B00     		movs	r3, r5
 205 0120 4B43     		muls	r3, r1
ARM GAS  C:\Users\embedded\AppData\Local\Temp\ccmO3zHR.s 			page 6


 206 0122 1B04     		lsls	r3, r3, #16
 207 0124 1B0C     		lsrs	r3, r3, #16
 208 0126 D318     		adds	r3, r2, r3
 209 0128 1B04     		lsls	r3, r3, #16
 210 012a 1A0C     		lsrs	r2, r3, #16
 211 012c 3B18     		adds	r3, r7, r0
 212 012e 1B88     		ldrh	r3, [r3]
 213 0130 5B08     		lsrs	r3, r3, #1
 214 0132 1B04     		lsls	r3, r3, #16
 215 0134 1B0C     		lsrs	r3, r3, #16
 216 0136 D318     		adds	r3, r2, r3
 217 0138 1B04     		lsls	r3, r3, #16
 218 013a 1B0C     		lsrs	r3, r3, #16
 219 013c 1800     		movs	r0, r3
 220 013e FFF7FEFF 		bl	delay_ms
  81:pwm.c         **** 
  82:pwm.c         **** 		/* Zatrzymanie i zresetowanie Timer Counter'a dla PWM */
  83:pwm.c         **** 		PWMTCR = 0x02;
 221              		.loc 1 83 0
 222 0142 124B     		ldr	r3, .L4+4
 223 0144 0222     		movs	r2, #2
 224 0146 1A60     		str	r2, [r3]
  84:pwm.c         **** 		PWMPCR &= ~(one32 << 13);
 225              		.loc 1 84 0
 226 0148 124B     		ldr	r3, .L4+12
 227 014a 1A68     		ldr	r2, [r3]
 228 014c FB68     		ldr	r3, [r7, #12]
 229 014e 5B03     		lsls	r3, r3, #13
 230 0150 D943     		mvns	r1, r3
 231 0152 104B     		ldr	r3, .L4+12
 232 0154 0A40     		ands	r2, r1
 233 0156 1A60     		str	r2, [r3]
  85:pwm.c         **** 
  86:pwm.c         **** 		/* Przywrocenie zawartosci rejestru PINSEL1 na bitach 11. i 10. na wartosci z przed wywolania fun
  87:pwm.c         **** 		PINSEL1 &= ~((one32 << 10) | (one32 << 11));
 234              		.loc 1 87 0
 235 0158 0B4B     		ldr	r3, .L4
 236 015a 1A68     		ldr	r2, [r3]
 237 015c FB68     		ldr	r3, [r7, #12]
 238 015e 9902     		lsls	r1, r3, #10
 239 0160 FB68     		ldr	r3, [r7, #12]
 240 0162 DB02     		lsls	r3, r3, #11
 241 0164 0B43     		orrs	r3, r1
 242 0166 D943     		mvns	r1, r3
 243 0168 074B     		ldr	r3, .L4
 244 016a 0A40     		ands	r2, r1
 245 016c 1A60     		str	r2, [r3]
  88:pwm.c         **** 		PINSEL1 |= (one32 << 11);
 246              		.loc 1 88 0
 247 016e 064B     		ldr	r3, .L4
 248 0170 1968     		ldr	r1, [r3]
 249 0172 FB68     		ldr	r3, [r7, #12]
 250 0174 DA02     		lsls	r2, r3, #11
 251 0176 044B     		ldr	r3, .L4
 252 0178 0A43     		orrs	r2, r1
 253 017a 1A60     		str	r2, [r3]
 254              	.L3:
ARM GAS  C:\Users\embedded\AppData\Local\Temp\ccmO3zHR.s 			page 7


 255              	.LBE2:
  89:pwm.c         **** 	}
  90:pwm.c         **** }
 256              		.loc 1 90 0
 257 017c C046     		nop
 258 017e BD46     		mov	sp, r7
 259 0180 04B0     		add	sp, sp, #16
 260              		@ sp needed
 261 0182 B0BC     		pop	{r4, r5, r7}
 262 0184 01BC     		pop	{r0}
 263 0186 0047     		bx	r0
 264              	.L5:
 265              		.align	2
 266              	.L4:
 267 0188 04C002E0 		.word	-536690684
 268 018c 044001E0 		.word	-536788988
 269 0190 104001E0 		.word	-536788976
 270 0194 4C4001E0 		.word	-536788916
 271 0198 144001E0 		.word	-536788972
 272 019c 184001E0 		.word	-536788968
 273 01a0 66E60000 		.word	58982
 274 01a4 444001E0 		.word	-536788924
 275 01a8 404001E0 		.word	-536788928
 276              		.cfi_endproc
 277              	.LFE0:
 278              		.size	blinkGreenLed, .-blinkGreenLed
 279              	.Letext0:
 280              		.file 2 "general.h"