ARM GAS  C:\Users\embedded\AppData\Local\Temp\ccC5b5QL.s 			page 1


   1              		.cpu arm7tdmi
   2              		.eabi_attribute 20, 1
   3              		.eabi_attribute 21, 1
   4              		.eabi_attribute 23, 3
   5              		.eabi_attribute 24, 1
   6              		.eabi_attribute 25, 1
   7              		.eabi_attribute 26, 1
   8              		.eabi_attribute 30, 6
   9              		.eabi_attribute 34, 0
  10              		.eabi_attribute 18, 4
  11              		.file	"irq_handler.c"
  12              		.text
  13              	.Ltext0:
  14              		.cfi_sections	.debug_frame
  15              		.align	2
  16              		.global	IRQ_PutNextSample
  17              		.syntax unified
  18              		.arm
  19              		.fpu softvfp
  20              		.type	IRQ_PutNextSample, %function
  21              	IRQ_PutNextSample:
  22              	.LFB0:
  23              		.file 1 "irq_handler.c"
   1:irq_handler.c **** /*
   2:irq_handler.c ****  *	@Description:	Definicje procedur obslugi przerwan
   3:irq_handler.c ****  */
   4:irq_handler.c **** 
   5:irq_handler.c **** #include "../general.h"
   6:irq_handler.c **** #include <lpc2xxx.h>
   7:irq_handler.c **** #include "irq_handler.h"
   8:irq_handler.c **** #include "../timer.h"
   9:irq_handler.c **** #include <printf_P.h>
  10:irq_handler.c **** 
  11:irq_handler.c **** #include "../dac.h"
  12:irq_handler.c **** 
  13:irq_handler.c **** 
  14:irq_handler.c **** /*
  15:irq_handler.c ****  *  @brief			Procedura obslugi przerwania zglaszanego przez Timer #1
  16:irq_handler.c ****  *
  17:irq_handler.c ****  *  @Description	Funkcja ta stanowi procedure obslugi przerwania zglaszanego przez Timer #1,
  18:irq_handler.c ****  * 					polega na wywolaniu funkcji putNextSample.
  19:irq_handler.c ****  *
  20:irq_handler.c ****  *  @param 			brak
  21:irq_handler.c ****  *
  22:irq_handler.c ****  *  @returns  		nic
  23:irq_handler.c ****  *
  24:irq_handler.c ****  *  @side effects	Modyfikacja rejestru T1IR Timer'a #1
  25:irq_handler.c ****  * 					Zerowanie rejestru VICVectAddr
  26:irq_handler.c ****  */
  27:irq_handler.c **** void IRQ_PutNextSample(void)
  28:irq_handler.c **** {
  24              		.loc 1 28 0
  25              		.cfi_startproc
  26              		@ Interrupt Service Routine.
  27              		@ args = 0, pretend = 0, frame = 0
  28              		@ frame_needed = 1, uses_anonymous_args = 0
  29 0000 04E04EE2 		sub	lr, lr, #4
ARM GAS  C:\Users\embedded\AppData\Local\Temp\ccC5b5QL.s 			page 2


  30 0004 1F582DE9 		push	{r0, r1, r2, r3, r4, fp, ip, lr}
  31              	.LCFI0:
  32              		.cfi_def_cfa_offset 32
  33              		.cfi_offset 0, -32
  34              		.cfi_offset 1, -28
  35              		.cfi_offset 2, -24
  36              		.cfi_offset 3, -20
  37              		.cfi_offset 4, -16
  38              		.cfi_offset 11, -12
  39              		.cfi_offset 12, -8
  40              		.cfi_offset 14, -4
  41 0008 1CB08DE2 		add	fp, sp, #28
  42              	.LCFI1:
  43              		.cfi_def_cfa 11, 4
  29:irq_handler.c **** 	/* Sprawdzenie, czy wystapilo odpowiednie przerwanie */
  30:irq_handler.c **** 	if ((TIMER_MR0_INT & T1IR) != 0u)
  44              		.loc 1 30 0
  45 000c 34309FE5 		ldr	r3, .L3
  46 0010 003093E5 		ldr	r3, [r3]
  47 0014 013003E2 		and	r3, r3, #1
  48 0018 000053E3 		cmp	r3, #0
  49 001c 0300000A 		beq	.L2
  31:irq_handler.c **** 	{
  32:irq_handler.c **** 		putNextSample();
  50              		.loc 1 32 0
  51 0020 FEFFFFEB 		bl	putNextSample
  33:irq_handler.c **** 
  34:irq_handler.c **** 		T1IR = (tU32)TIMER_MR0_INT; /* Poinformowanie Timera #1, iz jego przerwanie zostalo obsluzone */
  52              		.loc 1 34 0
  53 0024 1C309FE5 		ldr	r3, .L3
  54 0028 0120A0E3 		mov	r2, #1
  55 002c 002083E5 		str	r2, [r3]
  56              	.L2:
  35:irq_handler.c **** 	}
  36:irq_handler.c **** 
  37:irq_handler.c **** 	VICVectAddr = 0; /* Informacja dla kontrolera o zakonczeniu obslugi przerwania */
  57              		.loc 1 37 0
  58 0030 14309FE5 		ldr	r3, .L3+4
  59 0034 0020A0E3 		mov	r2, #0
  60 0038 002083E5 		str	r2, [r3]
  38:irq_handler.c **** }
  61              		.loc 1 38 0
  62 003c 0000A0E1 		nop
  63 0040 1CD04BE2 		sub	sp, fp, #28
  64              	.LCFI2:
  65              		.cfi_def_cfa 13, 32
  66              		@ sp needed
  67 0044 1F98FDE8 		ldmfd	sp!, {r0, r1, r2, r3, r4, fp, ip, pc}^
  68              	.L4:
  69              		.align	2
  70              	.L3:
  71 0048 008000E0 		.word	-536838144
  72 004c 30F0FFFF 		.word	-4048
  73              		.cfi_endproc
  74              	.LFE0:
  75              		.size	IRQ_PutNextSample, .-IRQ_PutNextSample
  76              	.Letext0:
ARM GAS  C:\Users\embedded\AppData\Local\Temp\ccC5b5QL.s 			page 3


  77              		.file 2 "../general.h"